GAS LISTING C:\Users\marky\AppData\Local\Temp\cca6k8fD.s 			page 1


   1              		.file	"osal.c"
   2              		.section	".text","axv"
   3              	.Ltext0:
   4              		.cfi_sections	.debug_frame
   5              		.section	.text.osalSysTimeSetup,"axv",@progbits
   6              		.align 1
   7              		.p2align 4,,15
   8              		.globl osalSysTimeSetup
   9              		.type	osalSysTimeSetup, @function
  10              	osalSysTimeSetup:
  11              	.LFB4:
  12              		.file 1 "./components/spc560bxx_osal_component_rla/lib/src/osal.c"
  13              		.loc 1 106 0
  14              		.cfi_startproc
  15              	.LVL0:
  16              		.loc 1 108 0
  17 0000 70E0E000 		e_lis %r7,.LANCHOR0@ha
  18              		.loc 1 111 0
  19              		.loc 1 108 0
  20 0004 54670000 		e_stw %r3,.LANCHOR0@l(%r7)
  21              		.loc 1 110 0
  22 0008 78000000 		e_b sysTimeSetup
  23              	.LVL1:
  24              		.cfi_endproc
  25              	.LFE4:
  26              		.size	osalSysTimeSetup, .-osalSysTimeSetup
  27              		.section	.text.osalSysTimeReset,"axv",@progbits
  28              		.align 1
  29              		.p2align 4,,15
  30              		.globl osalSysTimeReset
  31              		.type	osalSysTimeReset, @function
  32              	osalSysTimeReset:
  33              	.LFB5:
  34              		.loc 1 119 0
  35              		.cfi_startproc
  36              		.loc 1 122 0
  37              		.loc 1 121 0
  38 0000 78000000 		e_b sysTimeReset
  39              	.LVL2:
  40              		.cfi_endproc
  41              	.LFE5:
  42              		.size	osalSysTimeReset, .-osalSysTimeReset
  43              		.section	.text.osalThreadDelaySeconds,"axv",@progbits
  44              		.align 1
  45              		.p2align 4,,15
  46              		.globl osalThreadDelaySeconds
  47              		.type	osalThreadDelaySeconds, @function
  48              	osalThreadDelaySeconds:
  49              	.LFB12:
  50              		.loc 1 329 0
  51              		.cfi_startproc
  52              	.LVL3:
  53              	.LBB14:
  54              	.LBB15:
  55              		.loc 1 135 0
  56 0000 70E0E000 		e_lis %r7,.LANCHOR0@ha
  57              	.LBE15:
GAS LISTING C:\Users\marky\AppData\Local\Temp\cca6k8fD.s 			page 2


  58              	.LBE14:
  59              		.loc 1 332 0
  60              	.LBB17:
  61              	.LBB16:
  62              		.loc 1 135 0
  63 0004 50E70000 		e_lwz %r7,.LANCHOR0@l(%r7)
  64              	.LBE16:
  65              	.LBE17:
  66              		.loc 1 331 0
  67 0008 0573     		se_mullw %r3,%r7
  68              	.LVL4:
  69 000a 78000000 		e_b vTaskDelay
  70              	.LVL5:
  71              		.cfi_endproc
  72              	.LFE12:
  73              		.size	osalThreadDelaySeconds, .-osalThreadDelaySeconds
  74              		.section	.text.osalThreadDelayMilliseconds,"axv",@progbits
  75              		.align 1
  76              		.p2align 4,,15
  77              		.globl osalThreadDelayMilliseconds
  78              		.type	osalThreadDelayMilliseconds, @function
  79              	osalThreadDelayMilliseconds:
  80              	.LFB13:
  81              		.loc 1 344 0
  82              		.cfi_startproc
  83              	.LVL6:
  84              	.LBB18:
  85              	.LBB19:
  86              		.loc 1 149 0
  87 0000 70E0E000 		e_lis %r7,.LANCHOR0@ha
  88              	.LBE19:
  89              	.LBE18:
  90              		.loc 1 347 0
  91              	.LBB21:
  92              	.LBB20:
  93              		.loc 1 149 0
  94 0004 50E70000 		e_lwz %r7,.LANCHOR0@l(%r7)
  95 0008 0573     		se_mullw %r3,%r7
  96              	.LVL7:
  97 000a 70E2E062 		e_lis %r7,0x1062
  98 000e 186384FF 		e_addi %r3,%r3,-1
  99 0012 70E9C5D3 		e_or2i %r7,19923
 100 0016 7C633816 		mulhwu %r3,%r3,%r7
 101 001a 6863     		se_srwi %r3,6
 102              	.LBE20:
 103              	.LBE21:
 104              		.loc 1 346 0
 105 001c 2003     		se_addi %r3,1
 106 001e 78000000 		e_b vTaskDelay
 107              	.LVL8:
 108              		.cfi_endproc
 109              	.LFE13:
 110              		.size	osalThreadDelayMilliseconds, .-osalThreadDelayMilliseconds
 111              		.section	.text.osalThreadDelayMicroseconds,"axv",@progbits
 112              		.align 1
 113              		.p2align 4,,15
 114              		.globl osalThreadDelayMicroseconds
GAS LISTING C:\Users\marky\AppData\Local\Temp\cca6k8fD.s 			page 3


 115              		.type	osalThreadDelayMicroseconds, @function
 116              	osalThreadDelayMicroseconds:
 117              	.LFB14:
 118              		.loc 1 359 0
 119              		.cfi_startproc
 120              	.LVL9:
 121              	.LBB22:
 122              	.LBB23:
 123              		.loc 1 164 0
 124 0000 70E0E000 		e_lis %r7,.LANCHOR0@ha
 125              	.LBE23:
 126              	.LBE22:
 127              		.loc 1 362 0
 128              	.LBB25:
 129              	.LBB24:
 130              		.loc 1 164 0
 131 0004 50E70000 		e_lwz %r7,.LANCHOR0@l(%r7)
 132 0008 0573     		se_mullw %r3,%r7
 133              	.LVL10:
 134 000a 70E8E31B 		e_lis %r7,0x431b
 135 000e 186384FF 		e_addi %r3,%r3,-1
 136 0012 70FBC683 		e_or2i %r7,56963
 137 0016 7C633816 		mulhwu %r3,%r3,%r7
 138 001a 6923     		se_srwi %r3,18
 139              	.LBE24:
 140              	.LBE25:
 141              		.loc 1 361 0
 142 001c 2003     		se_addi %r3,1
 143 001e 78000000 		e_b vTaskDelay
 144              	.LVL11:
 145              		.cfi_endproc
 146              	.LFE14:
 147              		.size	osalThreadDelayMicroseconds, .-osalThreadDelayMicroseconds
 148              		.section	.text.osalThreadGetSeconds,"axv",@progbits
 149              		.align 1
 150              		.p2align 4,,15
 151              		.globl osalThreadGetSeconds
 152              		.type	osalThreadGetSeconds, @function
 153              	osalThreadGetSeconds:
 154              	.LFB15:
 155              		.loc 1 371 0
 156              		.cfi_startproc
 157 0000 182106F8 		e_stwu %r1,-8(%r1)
 158              	.LCFI0:
 159              		.cfi_def_cfa_offset 8
 160 0004 0080     		se_mflr %r0
 161 0006 D301     		se_stw %r0,12(%r1)
 162              		.cfi_offset 65, 4
 163              		.loc 1 373 0
 164 0008 78000001 		e_bl xTaskGetTickCount
 165              	.LVL12:
 166              		.loc 1 374 0
 167 000c C301     		se_lwz %r0,12(%r1)
 168 000e 0090     		se_mtlr %r0
 169              		.cfi_restore 65
 170              	.LBB26:
 171              	.LBB27:
GAS LISTING C:\Users\marky\AppData\Local\Temp\cca6k8fD.s 			page 4


 172              		.loc 1 179 0
 173 0010 70E0E000 		e_lis %r7,.LANCHOR0@ha
 174              	.LBE27:
 175              	.LBE26:
 176              		.loc 1 374 0
 177              	.LBB29:
 178              	.LBB28:
 179              		.loc 1 179 0
 180 0014 50E70000 		e_lwz %r7,.LANCHOR0@l(%r7)
 181              	.LBE28:
 182              	.LBE29:
 183              		.loc 1 374 0
 184 0018 2071     		se_addi %r1,8
 185              	.LCFI1:
 186              		.cfi_def_cfa_offset 0
 187 001a 7C633B96 		divwu %r3,%r3,%r7
 188              	.LVL13:
 189 001e 0004     		se_blr
 190              		.cfi_endproc
 191              	.LFE15:
 192              		.size	osalThreadGetSeconds, .-osalThreadGetSeconds
 193              		.section	.text.osalThreadGetMilliseconds,"axv",@progbits
 194              		.align 1
 195              		.p2align 4,,15
 196              		.globl osalThreadGetMilliseconds
 197              		.type	osalThreadGetMilliseconds, @function
 198              	osalThreadGetMilliseconds:
 199              	.LFB16:
 200              		.loc 1 383 0
 201              		.cfi_startproc
 202 0000 182106F8 		e_stwu %r1,-8(%r1)
 203              	.LCFI2:
 204              		.cfi_def_cfa_offset 8
 205 0004 0080     		se_mflr %r0
 206 0006 D301     		se_stw %r0,12(%r1)
 207              		.cfi_offset 65, 4
 208              		.loc 1 385 0
 209 0008 78000001 		e_bl xTaskGetTickCount
 210              	.LVL14:
 211              		.loc 1 386 0
 212 000c C301     		se_lwz %r0,12(%r1)
 213 000e 0090     		se_mtlr %r0
 214              		.cfi_restore 65
 215              	.LBB30:
 216              	.LBB31:
 217              		.loc 1 193 0
 218 0010 7003A3E8 		e_mull2i %r3,1000
 219              	.LVL15:
 220 0014 70E0E000 		e_lis %r7,.LANCHOR0@ha
 221              	.LBE31:
 222              	.LBE30:
 223              		.loc 1 386 0
 224              	.LBB33:
 225              	.LBB32:
 226              		.loc 1 193 0
 227 0018 50E70000 		e_lwz %r7,.LANCHOR0@l(%r7)
 228              	.LBE32:
GAS LISTING C:\Users\marky\AppData\Local\Temp\cca6k8fD.s 			page 5


 229              	.LBE33:
 230              		.loc 1 386 0
 231 001c 2071     		se_addi %r1,8
 232              	.LCFI3:
 233              		.cfi_def_cfa_offset 0
 234 001e 7C633B96 		divwu %r3,%r3,%r7
 235 0022 0004     		se_blr
 236              		.cfi_endproc
 237              	.LFE16:
 238              		.size	osalThreadGetMilliseconds, .-osalThreadGetMilliseconds
 239              		.section	.text.osalThreadGetMicroseconds,"axv",@progbits
 240              		.align 1
 241              		.p2align 4,,15
 242              		.globl osalThreadGetMicroseconds
 243              		.type	osalThreadGetMicroseconds, @function
 244              	osalThreadGetMicroseconds:
 245              	.LFB17:
 246              		.loc 1 395 0
 247              		.cfi_startproc
 248 0000 182106F8 		e_stwu %r1,-8(%r1)
 249              	.LCFI4:
 250              		.cfi_def_cfa_offset 8
 251 0004 0080     		se_mflr %r0
 252 0006 D301     		se_stw %r0,12(%r1)
 253              		.cfi_offset 65, 4
 254              		.loc 1 397 0
 255 0008 78000001 		e_bl xTaskGetTickCount
 256              	.LVL16:
 257              		.loc 1 398 0
 258 000c C301     		se_lwz %r0,12(%r1)
 259 000e 0090     		se_mtlr %r0
 260              		.cfi_restore 65
 261              	.LBB34:
 262              	.LBB35:
 263              		.loc 1 207 0
 264 0010 70E0E000 		e_lis %r7,.LANCHOR0@ha
 265              	.LBE35:
 266              	.LBE34:
 267              		.loc 1 398 0
 268              	.LBB38:
 269              	.LBB36:
 270              		.loc 1 207 0
 271 0014 50C70000 		e_lwz %r6,.LANCHOR0@l(%r7)
 272              	.LBE36:
 273              	.LBE38:
 274              		.loc 1 398 0
 275 0018 2071     		se_addi %r1,8
 276              	.LCFI5:
 277              		.cfi_def_cfa_offset 0
 278              	.LBB39:
 279              	.LBB37:
 280              		.loc 1 207 0
 281 001a 70E0E00F 		e_lis %r7,0xf
 282 001e 70E8C240 		e_or2i %r7,16960
 283 0022 0573     		se_mullw %r3,%r7
 284              	.LVL17:
 285              	.LBE37:
GAS LISTING C:\Users\marky\AppData\Local\Temp\cca6k8fD.s 			page 6


 286              	.LBE39:
 287              		.loc 1 398 0
 288 0024 7C633396 		divwu %r3,%r3,%r6
 289 0028 0004     		se_blr
 290              		.cfi_endproc
 291              	.LFE17:
 292              		.size	osalThreadGetMicroseconds, .-osalThreadGetMicroseconds
 293              		.section	.text.osalInit,"axv",@progbits
 294              		.align 1
 295              		.p2align 4,,15
 296              		.globl osalInit
 297              		.type	osalInit, @function
 298              	osalInit:
 299              	.LFB18:
 300              		.loc 1 411 0
 301              		.cfi_startproc
 302 0000 0004     		se_blr
 303              		.cfi_endproc
 304              	.LFE18:
 305              		.size	osalInit, .-osalInit
 306              		.section	.text.osalEnterCritical,"axv",@progbits
 307              		.align 1
 308              		.p2align 4,,15
 309              		.globl osalEnterCritical
 310              		.type	osalEnterCritical, @function
 311              	osalEnterCritical:
 312              	.LFB19:
 313              		.loc 1 424 0
 314              		.cfi_startproc
 315              		.loc 1 427 0
 316              		.loc 1 426 0
 317 0000 78000000 		e_b vTaskEnterCritical
 318              	.LVL18:
 319              		.cfi_endproc
 320              	.LFE19:
 321              		.size	osalEnterCritical, .-osalEnterCritical
 322              		.section	.text.osalExitCritical,"axv",@progbits
 323              		.align 1
 324              		.p2align 4,,15
 325              		.globl osalExitCritical
 326              		.type	osalExitCritical, @function
 327              	osalExitCritical:
 328              	.LFB20:
 329              		.loc 1 434 0
 330              		.cfi_startproc
 331              		.loc 1 437 0
 332              		.loc 1 436 0
 333 0000 78000000 		e_b vTaskExitCritical
 334              	.LVL19:
 335              		.cfi_endproc
 336              	.LFE20:
 337              		.size	osalExitCritical, .-osalExitCritical
 338              		.section	.text.osalEnterCriticalFromISR,"axv",@progbits
 339              		.align 1
 340              		.p2align 4,,15
 341              		.globl osalEnterCriticalFromISR
 342              		.type	osalEnterCriticalFromISR, @function
GAS LISTING C:\Users\marky\AppData\Local\Temp\cca6k8fD.s 			page 7


 343              	osalEnterCriticalFromISR:
 344              	.LFB21:
 345              		.loc 1 444 0
 346              		.cfi_startproc
 347 0000 0004     		se_blr
 348              		.cfi_endproc
 349              	.LFE21:
 350              		.size	osalEnterCriticalFromISR, .-osalEnterCriticalFromISR
 351              		.section	.text.osalExitCriticalFromISR,"axv",@progbits
 352              		.align 1
 353              		.p2align 4,,15
 354              		.globl osalExitCriticalFromISR
 355              		.type	osalExitCriticalFromISR, @function
 356              	osalExitCriticalFromISR:
 357              	.LFB22:
 358              		.loc 1 456 0
 359              		.cfi_startproc
 360 0000 0004     		se_blr
 361              		.cfi_endproc
 362              	.LFE22:
 363              		.size	osalExitCriticalFromISR, .-osalExitCriticalFromISR
 364              		.section	.bss.osal_ticks_per_sec,"aw",@nobits
 365              		.align 2
 366              		.set	.LANCHOR0,. + 0
 367              		.type	osal_ticks_per_sec, @object
 368              		.size	osal_ticks_per_sec, 4
 369              	osal_ticks_per_sec:
 370 0000 00000000 		.zero	4
 371              		.section	".text","axv"
 372              	.Letext0:
 373              		.file 2 "c:\\spc5studio\\eclipse\\plugins\\com.st.tools.spc5.tools.gnu.gcc.ppcvle.win32_4.9.4.2018
 374              		.file 3 "c:\\spc5studio\\eclipse\\plugins\\com.st.tools.spc5.tools.gnu.gcc.ppcvle.win32_4.9.4.2018
 375              		.file 4 "./components/spc5_freertos_component_rla/lib/portable/portmacro.h"
 376              		.file 5 "./components/spc560bxx_osal_component_rla/lib/include/osal.h"
 377              		.file 6 "./components/spc560bxx_osal_component_rla/lib/include/systimer.h"
 378              		.file 7 "./components/spc5_freertos_component_rla/lib/include/task.h"