GAS LISTING C:\Users\marky\AppData\Local\Temp\ccvPCVKb.s 			page 1


   1              		.file	"pal.c"
   2              		.section	".text","axv"
   3              	.Ltext0:
   4              		.cfi_sections	.debug_frame
   5              		.section	.text.pal_init,"axv",@progbits
   6              		.align 1
   7              		.p2align 4,,15
   8              		.globl pal_init
   9              		.type	pal_init, @function
  10              	pal_init:
  11              	.LFB4:
  12              		.file 1 "./components/spc560bxx_board_initialization_component_rla/lib/src/pal.c"
  13              		.loc 1 38 0
  14              		.cfi_startproc
  15              	.LVL0:
  16 0000 182106F0 		e_stwu %r1,-16(%r1)
  17              	.LCFI0:
  18              		.cfi_def_cfa_offset 16
  19 0004 0080     		se_mflr %r0
  20 0006 D3F1     		se_stw %r31,12(%r1)
  21 0008 D501     		se_stw %r0,20(%r1)
  22              		.cfi_offset 65, 4
  23              		.cfi_offset 31, -4
  24              		.loc 1 38 0
  25 000a 013F     		se_mr %r31,%r3
  26              		.loc 1 43 0
  27 000c 4924     		se_li %r4,18
  28 000e 4C43     		se_li %r3,68
  29              	.LVL1:
  30 0010 78000001 		e_bl SPCSetPeripheralClockMode
  31              	.LVL2:
  32 0014 4817     		se_li %r7,1
  33 0016 4805     		se_li %r5,0
  34              	.LBB2:
  35              		.loc 1 61 0
  36 0018 7078E3F9 		e_lis %r3,0xc3f9
  37 001c 7800000A 		e_b .L2
  38              	.LVL3:
  39              	.L3:
  40 0020 2007     		se_addi %r7,1
  41 0022 2005     		se_addi %r5,1
  42 0024 00E7     		se_extzh %r7
  43              	.LVL4:
  44              	.L2:
  45 0026 74A6043F 		e_rlwinm %r6,%r5,0,0xffff
  46              		.loc 1 55 0
  47 002a 23F5     		se_cmpli %r5,32
  48 002c 7A12FFF4 		e_beq %cr0,.L3
  49 0030 7006A821 		e_cmpl16i %r6,33
  50 0034 7A12FFEC 		e_beq %cr0,.L3
  51 0038 18C78486 		e_addi %r6,%r7,-122
  52 003c 7006B801 		e_cmphl16i %r6,1
  53 0040 7A01FFE0 		e_ble %cr0,.L3
  54              		.loc 1 61 0
  55 0044 18C58020 		e_addi %r6,%r5,32
  56 0048 A04F     		se_lhz %r4,0(%r31)
  57 004a 6C16     		se_slwi %r6, 1
GAS LISTING C:\Users\marky\AppData\Local\Temp\ccvPCVKb.s 			page 2


  58              	.LBE2:
  59              		.loc 1 48 0
  60 004c 7007A895 		e_cmpl16i %r7,149
  61              	.LBB3:
  62              		.loc 1 61 0
  63 0050 7C83332E 		sthx %r4,%r3,%r6
  64              	.LVL5:
  65              	.LBE3:
  66              		.loc 1 48 0
  67 0054 7A02FFCC 		e_bne %cr0,.L3
  68              		.loc 1 70 0
  69 0058 4C06     		se_li %r6,64
  70 005a 4807     		se_li %r7,0
  71              	.LVL6:
  72 005c 7098E3F9 		e_lis %r4,0xc3f9
  73 0060 00B6     		se_mtctr %r6
  74              	.L5:
  75              	.LVL7:
  76              		.loc 1 70 0 is_stmt 0 discriminator 3
  77 0062 C25F     		se_lwz %r5,8(%r31)
  78 0064 7CC43A14 		add %r6,%r4,%r7
  79 0068 7CA538AE 		lbzx %r5,%r5,%r7
  80 006c 2007     		se_addi %r7,1
  81              	.LVL8:
  82 006e 34A60500 		e_stb %r5,1280(%r6)
  83              		.loc 1 69 0 is_stmt 1 discriminator 3
  84 0072 7A20FFF0 		e_bdnz .L5
  85              	.LVL9:
  86              		.loc 1 75 0
  87 0076 C16F     		se_lwz %r6,4(%r31)
  88 0078 4804     		se_li %r4,0
  89 007a C076     		se_lwz %r7,0(%r6)
  90 007c 4805     		se_li %r5,0
  91              		.loc 1 76 0
  92 007e 7078E3F9 		e_lis %r3,0xc3f9
  93              		.loc 1 75 0
  94 0082 2C00     		se_bmaski %r0,0
  95 0084 73E79FFF 		e_cmp16i %r7,-1
  96 0088 7A120036 		e_beq %cr0,.L1
  97              	.LVL10:
  98              	.L9:
  99              		.loc 1 76 0
 100 008c 8466     		se_lbz %r6,4(%r6)
 101 008e 7CE33A14 		add %r7,%r3,%r7
 102              		.loc 1 78 0
 103 0092 2005     		se_addi %r5,1
 104              	.LVL11:
 105              		.loc 1 76 0
 106 0094 34C70600 		e_stb %r6,1536(%r7)
 107              		.loc 1 78 0
 108 0098 00E5     		se_extzh %r5
 109              	.LVL12:
 110              		.loc 1 77 0
 111 009a C16F     		se_lwz %r6,4(%r31)
 112 009c 7CE6202E 		lwzx %r7,%r6,%r4
 113 00a0 0446     		se_add %r6,%r4
 114 00a2 21F7     		se_addi %r7,32
GAS LISTING C:\Users\marky\AppData\Local\Temp\ccvPCVKb.s 			page 3


 115              		.loc 1 75 0
 116 00a4 7CA41870 		e_slwi %r4,%r5,3
 117              		.loc 1 77 0
 118 00a8 A366     		se_lhz %r6,6(%r6)
 119 00aa 6C17     		se_slwi %r7, 1
 120 00ac 7CC33B2E 		sthx %r6,%r3,%r7
 121              		.loc 1 75 0
 122 00b0 C16F     		se_lwz %r6,4(%r31)
 123 00b2 7CE6202E 		lwzx %r7,%r6,%r4
 124 00b6 0446     		se_add %r6,%r4
 125 00b8 0C07     		se_cmp %r7,%r0
 126 00ba 7A02FFD2 		e_bne %cr0,.L9
 127              	.LVL13:
 128              	.L1:
 129              		.loc 1 80 0
 130 00be C501     		se_lwz %r0,20(%r1)
 131 00c0 0090     		se_mtlr %r0
 132              		.cfi_restore 65
 133 00c2 C3F1     		se_lwz %r31,12(%r1)
 134              	.LVL14:
 135 00c4 20F1     		se_addi %r1,16
 136              	.LCFI1:
 137              		.cfi_restore 31
 138              		.cfi_def_cfa_offset 0
 139 00c6 0004     		se_blr
 140              		.cfi_endproc
 141              	.LFE4:
 142              		.size	pal_init, .-pal_init
 143              		.section	".text","axv"
 144              	.Letext0:
 145              		.file 2 "c:\\spc5studio\\eclipse\\plugins\\com.st.tools.spc5.tools.gnu.gcc.ppcvle.win32_4.9.4.2018
 146              		.file 3 "c:\\spc5studio\\eclipse\\plugins\\com.st.tools.spc5.tools.gnu.gcc.ppcvle.win32_4.9.4.2018
 147              		.file 4 "./components/spc560bxx_platform_component_rla/lib/include/typedefs.h"
 148              		.file 5 "./components/spc560bxx_platform_component_rla/lib/include/xpc560b.h"
 149              		.file 6 "./components/spc560bxx_board_initialization_component_rla/lib/include/pal.h"
 150              		.file 7 "./components/spc560bxx_clock_component_rla/lib/include/clock.h"