GAS LISTING C:\Users\marky\AppData\Local\Temp\ccXhrcwJ.s 			page 1


   1              		.file	"port.c"
   2              		.section	".text","axv"
   3              	.Ltext0:
   4              		.cfi_sections	.debug_frame
   5              		.section	.text.pxPortInitialiseStack,"axv",@progbits
   6              		.align 1
   7              		.p2align 4,,15
   8              		.globl pxPortInitialiseStack
   9              		.type	pxPortInitialiseStack, @function
  10              	pxPortInitialiseStack:
  11              	.LFB4:
  12              		.file 1 "./components/spc5_freertos_component_rla/lib/portable/port.c"
  13              		.loc 1 110 0
  14              		.cfi_startproc
  15              	.LVL0:
  16              		.loc 1 123 0
  17              	 # 123 "./components/spc5_freertos_component_rla/lib/portable/port.c" 1
  18 0000 7CC000A6 		mfmsr	%r6	
  19              	
  20              	 # 0 "" 2
  21              		.loc 1 124 0
  22              	 # 124 "./components/spc5_freertos_component_rla/lib/portable/port.c" 1
  23 0004 18C7D180 		e_ori	%r7, %r6, 32768	
  24              	
  25              	 # 0 "" 2
  26              	.LVL1:
  27              		.loc 1 129 0
  28 0008 4800     		se_li %r0,0
  29              		.loc 1 165 0
  30 000a 54A3FF5C 		e_stw %r5,-164(%r3)
  31              		.loc 1 131 0
  32 000e 5483FFD4 		e_stw %r4,-44(%r3)
  33              		.loc 1 129 0
  34 0012 5403FFDC 		e_stw %r0,-36(%r3)
  35              	.LVL2:
  36              		.loc 1 130 0
  37 0016 5403FFD8 		e_stw %r0,-40(%r3)
  38              	.LVL3:
  39              		.loc 1 132 0
  40 001a 5403FFD0 		e_stw %r0,-48(%r3)
  41              	.LVL4:
  42              		.loc 1 133 0
  43 001e 71600031 		e_li %r11,49
  44              		.loc 1 156 0
  45 0022 71200012 		e_li %r9,18
  46              		.loc 1 133 0
  47 0026 5563FFCC 		e_stw %r11,-52(%r3)
  48              	.LVL5:
  49              		.loc 1 156 0
  50 002a 5523FF80 		e_stw %r9,-128(%r3)
  51              		.loc 1 134 0
  52 002e 71600030 		e_li %r11,48
  53              		.loc 1 157 0
  54 0032 71200011 		e_li %r9,17
  55              		.loc 1 134 0
  56 0036 5563FFC8 		e_stw %r11,-56(%r3)
  57              	.LVL6:
GAS LISTING C:\Users\marky\AppData\Local\Temp\ccXhrcwJ.s 			page 2


  58              		.loc 1 157 0
  59 003a 5523FF7C 		e_stw %r9,-132(%r3)
  60              		.loc 1 135 0
  61 003e 71600029 		e_li %r11,41
  62              		.loc 1 158 0
  63 0042 71200010 		e_li %r9,16
  64              		.loc 1 135 0
  65 0046 5563FFC4 		e_stw %r11,-60(%r3)
  66              	.LVL7:
  67              		.loc 1 158 0
  68 004a 5523FF78 		e_stw %r9,-136(%r3)
  69              		.loc 1 136 0
  70 004e 71600028 		e_li %r11,40
  71              		.loc 1 159 0
  72 0052 71200009 		e_li %r9,9
  73              		.loc 1 136 0
  74 0056 5563FFC0 		e_stw %r11,-64(%r3)
  75              	.LVL8:
  76              		.loc 1 159 0
  77 005a 5523FF74 		e_stw %r9,-140(%r3)
  78              		.loc 1 137 0
  79 005e 71600027 		e_li %r11,39
  80              		.loc 1 160 0
  81 0062 71200008 		e_li %r9,8
  82              		.loc 1 137 0
  83 0066 5563FFBC 		e_stw %r11,-68(%r3)
  84              	.LVL9:
  85              		.loc 1 160 0
  86 006a 5523FF70 		e_stw %r9,-144(%r3)
  87              		.loc 1 138 0
  88 006e 71600026 		e_li %r11,38
  89              		.loc 1 161 0
  90 0072 71200007 		e_li %r9,7
  91              		.loc 1 138 0
  92 0076 5563FFB8 		e_stw %r11,-72(%r3)
  93              	.LVL10:
  94              		.loc 1 161 0
  95 007a 5523FF6C 		e_stw %r9,-148(%r3)
  96              		.loc 1 139 0
  97 007e 71600025 		e_li %r11,37
  98              		.loc 1 162 0
  99 0082 71200006 		e_li %r9,6
 100              		.loc 1 139 0
 101 0086 5563FFB4 		e_stw %r11,-76(%r3)
 102              	.LVL11:
 103              		.loc 1 162 0
 104 008a 5523FF68 		e_stw %r9,-152(%r3)
 105              		.loc 1 140 0
 106 008e 71600024 		e_li %r11,36
 107              		.loc 1 163 0
 108 0092 71200005 		e_li %r9,5
 109              		.loc 1 140 0
 110 0096 5563FFB0 		e_stw %r11,-80(%r3)
 111              	.LVL12:
 112              		.loc 1 163 0
 113 009a 5523FF64 		e_stw %r9,-156(%r3)
 114              		.loc 1 141 0
GAS LISTING C:\Users\marky\AppData\Local\Temp\ccXhrcwJ.s 			page 3


 115 009e 71600023 		e_li %r11,35
 116              		.loc 1 164 0
 117 00a2 71200004 		e_li %r9,4
 118              		.loc 1 141 0
 119 00a6 5563FFAC 		e_stw %r11,-84(%r3)
 120              	.LVL13:
 121              		.loc 1 164 0
 122 00aa 5523FF60 		e_stw %r9,-160(%r3)
 123              		.loc 1 142 0
 124 00ae 71600022 		e_li %r11,34
 125              		.loc 1 171 0
 126 00b2 4815     		se_li %r5,1
 127              	.LVL14:
 128              		.loc 1 142 0
 129 00b4 5563FFA8 		e_stw %r11,-88(%r3)
 130              	.LVL15:
 131              		.loc 1 143 0
 132 00b8 71600021 		e_li %r11,33
 133              		.loc 1 181 0
 134 00bc 18638424 		e_addi %r3,%r3,-220
 135              	.LVL16:
 136              		.loc 1 143 0
 137 00c0 55630080 		e_stw %r11,128(%r3)
 138              	.LVL17:
 139              		.loc 1 144 0
 140 00c4 71600020 		e_li %r11,32
 141 00c8 5563007C 		e_stw %r11,124(%r3)
 142              		.loc 1 145 0
 143 00cc 71600019 		e_li %r11,25
 144 00d0 55630078 		e_stw %r11,120(%r3)
 145              		.loc 1 146 0
 146 00d4 71600018 		e_li %r11,24
 147 00d8 55630074 		e_stw %r11,116(%r3)
 148              		.loc 1 147 0
 149 00dc 71600017 		e_li %r11,23
 150 00e0 55630070 		e_stw %r11,112(%r3)
 151              		.loc 1 148 0
 152 00e4 71600016 		e_li %r11,22
 153 00e8 5563006C 		e_stw %r11,108(%r3)
 154              		.loc 1 149 0
 155 00ec 71600015 		e_li %r11,21
 156 00f0 55630068 		e_stw %r11,104(%r3)
 157              		.loc 1 150 0
 158 00f4 71600014 		e_li %r11,20
 159 00f8 55630064 		e_stw %r11,100(%r3)
 160              		.loc 1 154 0
 161 00fc 7160E000 		e_lis %r11,__sdata2_start__@ha
 162 0100 1D6B0000 		e_la %r11,__sdata2_start__@l(%r11)
 163 0104 55630060 		e_stw %r11,96(%r3)
 164              		.loc 1 169 0
 165 0108 55630034 		e_stw %r11,52(%r3)
 166              		.loc 1 173 0
 167 010c DA73     		se_stw %r7,40(%r3)
 168              		.loc 1 171 0
 169 010e DC53     		se_stw %r5,48(%r3)
 170              		.loc 1 172 0
 171 0110 DB03     		se_stw %r0,44(%r3)
GAS LISTING C:\Users\marky\AppData\Local\Temp\ccXhrcwJ.s 			page 4


 172              		.loc 1 174 0
 173 0112 D943     		se_stw %r4,36(%r3)
 174              		.loc 1 175 0
 175 0114 D863     		se_stw %r6,32(%r3)
 176              		.loc 1 178 0
 177 0116 70F7E2DA 		e_lis %r7,0xbada
 178 011a 70F7C2DA 		e_or2i %r7,47834
 179 011e D073     		se_stw %r7,0(%r3)
 180              		.loc 1 181 0
 181 0120 0004     		se_blr
 182              		.cfi_endproc
 183              	.LFE4:
 184              		.size	pxPortInitialiseStack, .-pxPortInitialiseStack
 185              		.section	.text.xPortStartScheduler,"axv",@progbits
 186              		.align 1
 187              		.p2align 4,,15
 188              		.globl xPortStartScheduler
 189              		.type	xPortStartScheduler, @function
 190              	xPortStartScheduler:
 191              	.LFB5:
 192              		.loc 1 185 0
 193              		.cfi_startproc
 194 0000 182106F8 		e_stwu %r1,-8(%r1)
 195              	.LCFI0:
 196              		.cfi_def_cfa_offset 8
 197 0004 0080     		se_mflr %r0
 198              	.LBB6:
 199              	.LBB7:
 200              		.loc 1 205 0
 201 0006 706003E8 		e_li %r3,1000
 202              	.LBE7:
 203              	.LBE6:
 204              		.loc 1 185 0
 205 000a D301     		se_stw %r0,12(%r1)
 206              		.cfi_offset 65, 4
 207              	.LBB9:
 208              	.LBB8:
 209              		.loc 1 205 0
 210 000c 78000001 		e_bl osalSysTimeSetup
 211              	.LVL18:
 212              	.LBE8:
 213              	.LBE9:
 214              		.loc 1 188 0
 215 0010 78000001 		e_bl vPortStartFirstTask
 216              	.LVL19:
 217              		.loc 1 192 0
 218 0014 C301     		se_lwz %r0,12(%r1)
 219 0016 0090     		se_mtlr %r0
 220              		.cfi_restore 65
 221 0018 4803     		se_li %r3,0
 222 001a 2071     		se_addi %r1,8
 223              	.LCFI1:
 224              		.cfi_def_cfa_offset 0
 225 001c 0004     		se_blr
 226              		.cfi_endproc
 227              	.LFE5:
 228              		.size	xPortStartScheduler, .-xPortStartScheduler
GAS LISTING C:\Users\marky\AppData\Local\Temp\ccXhrcwJ.s 			page 5


 229              		.section	.text.vPortEndScheduler,"axv",@progbits
 230              		.align 1
 231              		.p2align 4,,15
 232              		.globl vPortEndScheduler
 233              		.type	vPortEndScheduler, @function
 234              	vPortEndScheduler:
 235              	.LFB6:
 236              		.loc 1 196 0
 237              		.cfi_startproc
 238              	.L4:
 239              		.loc 1 198 0 discriminator 1
 240 0000 78000000 		e_b .L4
 241              		.cfi_endproc
 242              	.LFE6:
 243              		.size	vPortEndScheduler, .-vPortEndScheduler
 244              		.section	.text.prvPortTimerSetup,"axv",@progbits
 245              		.align 1
 246              		.p2align 4,,15
 247              		.globl prvPortTimerSetup
 248              		.type	prvPortTimerSetup, @function
 249              	prvPortTimerSetup:
 250              	.LFB7:
 251              		.loc 1 203 0
 252              		.cfi_startproc
 253              		.loc 1 205 0
 254 0000 706003E8 		e_li %r3,1000
 255              		.loc 1 207 0
 256              		.loc 1 205 0
 257 0004 78000000 		e_b osalSysTimeSetup
 258              	.LVL20:
 259              		.cfi_endproc
 260              	.LFE7:
 261              		.size	prvPortTimerSetup, .-prvPortTimerSetup
 262              		.section	.text.vPortTimerReset,"axv",@progbits
 263              		.align 1
 264              		.p2align 4,,15
 265              		.globl vPortTimerReset
 266              		.type	vPortTimerReset, @function
 267              	vPortTimerReset:
 268              	.LFB8:
 269              		.loc 1 211 0
 270              		.cfi_startproc
 271              		.loc 1 215 0
 272              		.loc 1 213 0
 273 0000 78000000 		e_b osalSysTimeReset
 274              	.LVL21:
 275              		.cfi_endproc
 276              	.LFE8:
 277              		.size	vPortTimerReset, .-vPortTimerReset
 278              		.section	.text.vector59,"axv",@progbits
 279              		.align 1
 280              		.p2align 4,,15
 281              		.globl vector59
 282              		.type	vector59, @function
 283              	vector59:
 284              	.LFB9:
 285              		.loc 1 219 0
GAS LISTING C:\Users\marky\AppData\Local\Temp\ccXhrcwJ.s 			page 6


 286              		.cfi_startproc
 287 0000 182106F8 		e_stwu %r1,-8(%r1)
 288              	.LCFI2:
 289              		.cfi_def_cfa_offset 8
 290 0004 0080     		se_mflr %r0
 291 0006 D301     		se_stw %r0,12(%r1)
 292              		.cfi_offset 65, 4
 293              		.loc 1 220 0
 294 0008 78000001 		e_bl xTaskIncrementTick
 295              	.LVL22:
 296              		.loc 1 222 0
 297 000c 78000001 		e_bl vTaskSwitchContext
 298              	.LVL23:
 299              		.loc 1 225 0
 300 0010 C301     		se_lwz %r0,12(%r1)
 301 0012 0090     		se_mtlr %r0
 302              		.cfi_restore 65
 303 0014 2071     		se_addi %r1,8
 304              	.LCFI3:
 305              		.cfi_def_cfa_offset 0
 306              	.LBB10:
 307              	.LBB11:
 308              		.loc 1 213 0
 309 0016 78000000 		e_b osalSysTimeReset
 310              	.LVL24:
 311              	.LBE11:
 312              	.LBE10:
 313              		.cfi_endproc
 314              	.LFE9:
 315              		.size	vector59, .-vector59
 316              		.section	".text","axv"
 317              	.Letext0:
 318              		.file 2 "c:\\spc5studio\\eclipse\\plugins\\com.st.tools.spc5.tools.gnu.gcc.ppcvle.win32_4.9.4.2018
 319              		.file 3 "c:\\spc5studio\\eclipse\\plugins\\com.st.tools.spc5.tools.gnu.gcc.ppcvle.win32_4.9.4.2018
 320              		.file 4 "./components/spc5_freertos_component_rla/lib/include/projdefs.h"
 321              		.file 5 "./components/spc5_freertos_component_rla/lib/portable/portmacro.h"
 322              		.file 6 "./components/spc560bxx_osal_component_rla/lib/include/osal.h"
 323              		.file 7 "./components/spc5_freertos_component_rla/lib/include/task.h"