GAS LISTING C:\Users\marky\AppData\Local\Temp\ccjSP3i4.s 			page 1


   1              		.file	"pwm_lld.c"
   2              		.section	".text","axv"
   3              	.Ltext0:
   4              		.cfi_sections	.debug_frame
   5              		.section	.text.pwm_lld_serve_period_interrupt,"axv",@progbits
   6              		.align 1
   7              		.p2align 4,,15
   8              		.globl pwm_lld_serve_period_interrupt
   9              		.type	pwm_lld_serve_period_interrupt, @function
  10              	pwm_lld_serve_period_interrupt:
  11              	.LFB4:
  12              		.file 1 "./components/spc560bxx_low_level_drivers_component_rla/lib/src/pwm_lld.c"
  13              		.loc 1 131 0
  14              		.cfi_startproc
  15              	.LVL0:
  16              		.loc 1 135 0
  17 0000 C273     		se_lwz %r7,8(%r3)
  18 0002 7C862870 		e_slwi %r6,%r4,5
  19 0006 7CC73214 		add %r6,%r7,%r6
  20 000a CC76     		se_lwz %r7,48(%r6)
  21              	.LVL1:
  22              		.loc 1 136 0
  23 000c 6707     		se_btsti %r7,16
  24 000e 7A12000A 		e_beq %cr0,.L2
  25              		.loc 1 137 0
  26 0012 CC56     		se_lwz %r5,48(%r6)
  27 0014 6505     		se_bseti %r5,16
  28 0016 DC56     		se_stw %r5,48(%r6)
  29              	.L2:
  30              		.loc 1 139 0
  31 0018 2A07     		se_cmpi %r7,0
  32 001a 7A100028 		e_blt %cr0,.L8
  33              	.L3:
  34              		.loc 1 142 0
  35 001e 67F7     		se_btsti %r7,31
  36 0020 7A120020 		e_beq %cr0,.L1
  37              		.loc 1 143 0
  38 0024 C273     		se_lwz %r7,8(%r3)
  39              	.LVL2:
  40 0026 6C54     		se_slwi %r4, 5
  41              	.LVL3:
  42 0028 7C872214 		add %r4,%r7,%r4
  43 002c CC74     		se_lwz %r7,48(%r4)
  44 002e 65F7     		se_bseti %r7,31
  45 0030 DC74     		se_stw %r7,48(%r4)
  46              		.loc 1 144 0
  47 0032 C073     		se_lwz %r7,0(%r3)
  48 0034 C277     		se_lwz %r7,8(%r7)
  49 0036 2A07     		se_cmpi %r7,0
  50 0038 7A120008 		e_beq %cr0,.L1
  51              		.loc 1 145 0
  52 003c 00B7     		se_mtctr %r7
  53              		.loc 1 149 0
  54              		.loc 1 145 0
  55 003e 0006     		se_bctr
  56              	.LVL4:
  57              	.L1:
GAS LISTING C:\Users\marky\AppData\Local\Temp\ccjSP3i4.s 			page 2


  58 0040 0004     		se_blr
  59              	.LVL5:
  60              	.L8:
  61              		.loc 1 140 0
  62 0042 C263     		se_lwz %r6,8(%r3)
  63 0044 7C852870 		e_slwi %r5,%r4,5
  64 0048 0456     		se_add %r6,%r5
  65 004a CC56     		se_lwz %r5,48(%r6)
  66 004c 6405     		se_bseti %r5,0
  67 004e DC56     		se_stw %r5,48(%r6)
  68 0050 79FFFFCE 		e_b .L3
  69              		.cfi_endproc
  70              	.LFE4:
  71              		.size	pwm_lld_serve_period_interrupt, .-pwm_lld_serve_period_interrupt
  72              		.section	.text.pwm_lld_serve_channel_interrupt,"axv",@progbits
  73              		.align 1
  74              		.p2align 4,,15
  75              		.globl pwm_lld_serve_channel_interrupt
  76              		.type	pwm_lld_serve_channel_interrupt, @function
  77              	pwm_lld_serve_channel_interrupt:
  78              	.LFB5:
  79              		.loc 1 157 0
  80              		.cfi_startproc
  81              	.LVL6:
  82              		.loc 1 162 0
  83 0000 C273     		se_lwz %r7,8(%r3)
  84 0002 7C862870 		e_slwi %r6,%r4,5
  85 0006 0145     		se_mr %r5,%r4
  86 0008 7CC73214 		add %r6,%r7,%r6
  87 000c CC76     		se_lwz %r7,48(%r6)
  88              	.LVL7:
  89              		.loc 1 163 0
  90 000e 6707     		se_btsti %r7,16
  91 0010 7A12000A 		e_beq %cr0,.L10
  92              		.loc 1 164 0
  93 0014 CC06     		se_lwz %r0,48(%r6)
  94 0016 6500     		se_bseti %r0,16
  95 0018 DC06     		se_stw %r0,48(%r6)
  96              	.L10:
  97              		.loc 1 166 0
  98 001a 2A07     		se_cmpi %r7,0
  99 001c 7A100042 		e_blt %cr0,.L18
 100              	.L11:
 101              		.loc 1 169 0
 102 0020 67F7     		se_btsti %r7,31
 103 0022 7A12003A 		e_beq %cr0,.L9
 104              		.loc 1 170 0
 105 0026 C273     		se_lwz %r7,8(%r3)
 106              	.LVL8:
 107 0028 7C862870 		e_slwi %r6,%r4,5
 108 002c 0467     		se_add %r7,%r6
 109 002e CC67     		se_lwz %r6,48(%r7)
 110 0030 65F6     		se_bseti %r6,31
 111 0032 DC67     		se_stw %r6,48(%r7)
 112              		.loc 1 171 0
 113 0034 8C73     		se_lbz %r7,12(%r3)
 114 0036 2B77     		se_cmpi %r7,23
GAS LISTING C:\Users\marky\AppData\Local\Temp\ccjSP3i4.s 			page 3


 115 0038 7A120038 		e_beq %cr0,.L19
 116              		.loc 1 179 0
 117 003c 2E74     		se_andi %r4,7
 118              	.LVL9:
 119              	.L17:
 120 003e 188484FF 		e_addi %r4,%r4,-1
 121              	.LVL10:
 122 0042 7485063F 		e_rlwinm %r5,%r4,0,0xff
 123              	.LVL11:
 124              	.L15:
 125              		.loc 1 181 0
 126 0046 C073     		se_lwz %r7,0(%r3)
 127 0048 7CA41870 		e_slwi %r4,%r5,3
 128 004c 7C872214 		add %r4,%r7,%r4
 129 0050 C474     		se_lwz %r7,16(%r4)
 130 0052 2A07     		se_cmpi %r7,0
 131 0054 7A120008 		e_beq %cr0,.L9
 132              		.loc 1 182 0
 133 0058 00B7     		se_mtctr %r7
 134              		.loc 1 186 0
 135              		.loc 1 182 0
 136 005a 0006     		se_bctr
 137              	.LVL12:
 138              	.L9:
 139 005c 0004     		se_blr
 140              	.LVL13:
 141              	.L18:
 142              		.loc 1 167 0
 143 005e C263     		se_lwz %r6,8(%r3)
 144 0060 7C802870 		e_slwi %r0,%r4,5
 145 0064 0406     		se_add %r6,%r0
 146 0066 CC06     		se_lwz %r0,48(%r6)
 147 0068 6400     		se_bseti %r0,0
 148 006a DC06     		se_stw %r0,48(%r6)
 149 006c 79FFFFB4 		e_b .L11
 150              	.LVL14:
 151              	.L19:
 152              		.loc 1 173 0
 153 0070 2354     		se_cmpli %r4,22
 154 0072 7A01FFD4 		e_ble %cr0,.L15
 155 0076 79FFFFC8 		e_b .L17
 156              		.cfi_endproc
 157              	.LFE5:
 158              		.size	pwm_lld_serve_channel_interrupt, .-pwm_lld_serve_channel_interrupt
 159              		.section	.text.pwm_lld_init,"axv",@progbits
 160              		.align 1
 161              		.p2align 4,,15
 162              		.globl pwm_lld_init
 163              		.type	pwm_lld_init, @function
 164              	pwm_lld_init:
 165              	.LFB6:
 166              		.loc 1 201 0
 167              		.cfi_startproc
 168 0000 182106F8 		e_stwu %r1,-8(%r1)
 169              	.LCFI0:
 170              		.cfi_def_cfa_offset 8
 171 0004 0080     		se_mflr %r0
GAS LISTING C:\Users\marky\AppData\Local\Temp\ccjSP3i4.s 			page 4


 172 0006 D301     		se_stw %r0,12(%r1)
 173              		.cfi_offset 65, 4
 174              		.loc 1 204 0
 175 0008 78000001 		e_bl reset_emios0_active_ch_group
 176              	.LVL15:
 177              		.loc 1 207 0
 178 000c 78000001 		e_bl reset_emios1_active_ch_group
 179              	.LVL16:
 180              		.loc 1 282 0
 181 0010 4886     		se_li %r6,8
 182              		.loc 1 212 0
 183 0012 70E0E000 		e_lis %r7,.LANCHOR0@ha
 184 0016 4804     		se_li %r4,0
 185 0018 1CA70000 		e_la %r5,.LANCHOR0@l(%r7)
 186 001c 54870000 		e_stw %r4,.LANCHOR0@l(%r7)
 187              		.loc 1 213 0
 188 0020 70F8E3FA 		e_lis %r7,0xc3fa
 189              		.loc 1 214 0
 190 0024 4974     		se_li %r4,23
 191              		.loc 1 213 0
 192 0026 D275     		se_stw %r7,8(%r5)
 193              		.loc 1 214 0
 194 0028 9C45     		se_stb %r4,12(%r5)
 195              		.loc 1 282 0
 196 002a 70FFE7F4 		e_lis %r7,0xfff4
 197 002e 6507     		se_bseti %r7,16
 198 0030 34C700CD 		e_stb %r6,205(%r7)
 199              		.loc 1 283 0
 200 0034 34C700CE 		e_stb %r6,206(%r7)
 201              		.loc 1 284 0
 202 0038 34C700CF 		e_stb %r6,207(%r7)
 203              		.loc 1 285 0
 204 003c 34C700D0 		e_stb %r6,208(%r7)
 205              		.loc 1 290 0
 206 0040 34C700D1 		e_stb %r6,209(%r7)
 207              		.loc 1 291 0
 208 0044 34C700D2 		e_stb %r6,210(%r7)
 209              		.loc 1 292 0
 210 0048 34C700D3 		e_stb %r6,211(%r7)
 211              		.loc 1 293 0
 212 004c 34C700D4 		e_stb %r6,212(%r7)
 213              		.loc 1 298 0
 214 0050 34C700D5 		e_stb %r6,213(%r7)
 215              		.loc 1 299 0
 216 0054 34C700D6 		e_stb %r6,214(%r7)
 217              		.loc 1 300 0
 218 0058 34C700D7 		e_stb %r6,215(%r7)
 219              		.loc 1 301 0
 220 005c 34C700D8 		e_stb %r6,216(%r7)
 221              		.loc 1 306 0
 222 0060 34C700D9 		e_stb %r6,217(%r7)
 223              		.loc 1 307 0
 224 0064 34C700DA 		e_stb %r6,218(%r7)
 225              		.loc 1 308 0
 226 0068 34C700DB 		e_stb %r6,219(%r7)
 227              		.loc 1 309 0
 228 006c 34C700DC 		e_stb %r6,220(%r7)
GAS LISTING C:\Users\marky\AppData\Local\Temp\ccjSP3i4.s 			page 5


 229              		.loc 1 344 0
 230 0070 C301     		se_lwz %r0,12(%r1)
 231 0072 0090     		se_mtlr %r0
 232              		.cfi_restore 65
 233 0074 2071     		se_addi %r1,8
 234              	.LCFI1:
 235              		.cfi_def_cfa_offset 0
 236 0076 0004     		se_blr
 237              		.cfi_endproc
 238              	.LFE6:
 239              		.size	pwm_lld_init, .-pwm_lld_init
 240              		.section	.text.pwm_lld_start,"axv",@progbits
 241              		.align 1
 242              		.p2align 4,,15
 243              		.globl pwm_lld_start
 244              		.type	pwm_lld_start, @function
 245              	pwm_lld_start:
 246              	.LFB8:
 247              		.loc 1 478 0
 248              		.cfi_startproc
 249              	.LVL17:
 250 0000 182106D8 		e_stwu %r1,-40(%r1)
 251              	.LCFI2:
 252              		.cfi_def_cfa_offset 40
 253 0004 0080     		se_mflr %r0
 254 0006 1B010908 		e_stmw %r24,8(%r1)
 255 000a DB01     		se_stw %r0,44(%r1)
 256              		.cfi_offset 65, 4
 257              		.cfi_offset 24, -32
 258              		.cfi_offset 25, -28
 259              		.cfi_offset 26, -24
 260              		.cfi_offset 27, -20
 261              		.cfi_offset 28, -16
 262              		.cfi_offset 29, -12
 263              		.cfi_offset 30, -8
 264              		.cfi_offset 31, -4
 265              		.loc 1 478 0
 266 000c 013F     		se_mr %r31,%r3
 267 000e 014E     		se_mr %r30,%r4
 268              		.loc 1 480 0
 269 0010 78000001 		e_bl osalEnterCritical
 270              	.LVL18:
 271              		.loc 1 483 0
 272 0014 C17E     		se_lwz %r7,4(%r30)
 273              		.loc 1 482 0
 274 0016 D0EF     		se_stw %r30,0(%r31)
 275              		.loc 1 483 0
 276 0018 D17F     		se_stw %r7,4(%r31)
 277              		.loc 1 486 0
 278 001a 70E0E000 		e_lis %r7,.LANCHOR0@ha
 279 001e 1CE70000 		e_la %r7,.LANCHOR0@l(%r7)
 280 0022 0C7F     		se_cmp %r31,%r7
 281 0024 7A120020 		e_beq %cr0,.L42
 282              		.loc 1 539 0
 283 0028 C27F     		se_lwz %r7,8(%r31)
 284 002a 70D8E3FA 		e_lis %r6,0xc3fa
 285 002e 0C67     		se_cmp %r7,%r6
GAS LISTING C:\Users\marky\AppData\Local\Temp\ccjSP3i4.s 			page 6


 286 0030 7A1201DE 		e_beq %cr0,.L43
 287              	.LVL19:
 288              	.L26:
 289              		.loc 1 605 0
 290 0034 CB01     		se_lwz %r0,44(%r1)
 291 0036 1B010808 		e_lmw %r24,8(%r1)
 292 003a 0090     		se_mtlr %r0
 293              		.cfi_remember_state
 294              		.cfi_restore 65
 295 003c 18218028 		e_addi %r1,%r1,40
 296              	.LCFI3:
 297              		.cfi_restore 31
 298              		.cfi_restore 30
 299              		.cfi_restore 29
 300              		.cfi_restore 28
 301              		.cfi_restore 27
 302              		.cfi_restore 26
 303              		.cfi_restore 25
 304              		.cfi_restore 24
 305              		.cfi_def_cfa_offset 0
 306              		.loc 1 604 0
 307 0040 78000000 		e_b osalExitCritical
 308              	.LVL20:
 309              	.L42:
 310              	.LCFI4:
 311              		.cfi_restore_state
 312              		.loc 1 487 0
 313 0044 78000001 		e_bl increase_emios0_active_ch_group
 314              	.LVL21:
 315              		.loc 1 539 0
 316 0048 C27F     		se_lwz %r7,8(%r31)
 317 004a 70D8E3FA 		e_lis %r6,0xc3fa
 318 004e 0C67     		se_cmp %r7,%r6
 319 0050 7A1201E2 		e_beq %cr0,.L23
 320              	.L37:
 321              	.LVL22:
 322              	.LBB4:
 323              	.LBB5:
 324              		.loc 1 363 0
 325 0054 70E0E000 		e_lis %r7,.LANCHOR0+12@ha
 326 0058 30070000 		e_lbz %r0,.LANCHOR0+12@l(%r7)
 327 005c 2360     		se_cmpli %r0,23
 328 005e 7A1201C8 		e_beq %cr0,.L38
 329              		.loc 1 370 0
 330 0062 18E08001 		e_addi %r7,%r0,1
 331              		.loc 1 371 0
 332 0066 1BA08007 		e_addi %r29,%r0,7
 333              		.loc 1 370 0
 334 006a 00C7     		se_extzb %r7
 335              	.LVL23:
 336              		.loc 1 371 0
 337 006c 00CD     		se_extzb %r29
 338              	.LVL24:
 339              		.loc 1 372 0
 340 006e 71400200 		e_li %r10,512
 341              	.LVL25:
 342              	.L24:
GAS LISTING C:\Users\marky\AppData\Local\Temp\ccjSP3i4.s 			page 7


 343              		.loc 1 376 0
 344 0072 7060E000 		e_lis %r3,.LANCHOR0@ha
 345 0076 481F     		se_li %r31,1
 346              	.LVL26:
 347 0078 1CC30000 		e_la %r6,.LANCHOR0@l(%r3)
 348 007c 7FEC0030 		slw %r12,%r31,%r0
 349 0080 C246     		se_lwz %r4,8(%r6)
 350              		.loc 1 379 0
 351 0082 7130E000 		e_lis %r9,0x8000
 352              		.loc 1 376 0
 353 0086 C354     		se_lwz %r5,12(%r4)
 354              		.loc 1 379 0
 355 0088 7C062870 		e_slwi %r6,%r0,5
 356              		.loc 1 376 0
 357 008c 7CA56078 		andc %r5,%r5,%r12
 358              		.loc 1 379 0
 359 0090 7CC43214 		add %r6,%r4,%r6
 360              		.loc 1 376 0
 361 0094 D354     		se_stw %r5,12(%r4)
 362              		.loc 1 379 0
 363 0096 7130C001 		e_or2i %r9,32769
 364              		.loc 1 383 0
 365 009a 18A08001 		e_addi %r5,%r0,1
 366              		.loc 1 379 0
 367 009e 55260030 		e_stw %r9,48(%r6)
 368              		.loc 1 383 0
 369 00a2 6C55     		se_slwi %r5, 5
 370 00a4 480C     		se_li %r28,0
 371 00a6 7CA42A14 		add %r5,%r4,%r5
 372 00aa C3E5     		se_lwz %r30,12(%r5)
 373              	.LVL27:
 374 00ac 779EC98C 		e_rlwimi %r30,%r28,25,6,6
 375 00b0 D3E5     		se_stw %r30,12(%r5)
 376              		.loc 1 384 0
 377 00b2 DAF6     		se_stw %r31,40(%r6)
 378              		.loc 1 385 0
 379 00b4 53C30000 		e_lwz %r30,.LANCHOR0@l(%r3)
 380 00b8 C13E     		se_lwz %r3,4(%r30)
 381 00ba D836     		se_stw %r3,32(%r6)
 382              		.loc 1 386 0
 383 00bc CB36     		se_lwz %r3,44(%r6)
 384 00be 1863D106 		e_ori %r3,%r3,1536
 385 00c2 DB36     		se_stw %r3,44(%r6)
 386              		.loc 1 387 0
 387 00c4 CB36     		se_lwz %r3,44(%r6)
 388 00c6 1863D050 		e_ori %r3,%r3,80
 389 00ca DB36     		se_stw %r3,44(%r6)
 390              		.loc 1 388 0
 391 00cc C3F5     		se_lwz %r31,12(%r5)
 392 00ce 803E     		se_lbz %r3,0(%r30)
 393 00d0 186384FF 		e_addi %r3,%r3,-1
 394 00d4 747FD10A 		e_rlwimi %r31,%r3,26,4,5
 395 00d8 D3F5     		se_stw %r31,12(%r5)
 396              		.loc 1 389 0
 397 00da CB56     		se_lwz %r5,44(%r6)
 398 00dc 6465     		se_bseti %r5,6
 399 00de DB56     		se_stw %r5,44(%r6)
GAS LISTING C:\Users\marky\AppData\Local\Temp\ccjSP3i4.s 			page 8


 400              		.loc 1 392 0
 401 00e0 50DE0104 		e_lwz %r6,260(%r30)
 402 00e4 2A06     		se_cmpi %r6,0
 403 00e6 7A02FF4E 		e_bne %cr0,.L26
 404              	.LVL28:
 405              		.loc 1 393 0
 406 00ea 4805     		se_li %r5,0
 407 00ec 0D7D     		se_cmpl %r29,%r7
 408 00ee 7A10012A 		e_blt %cr0,.L35
 409              		.loc 1 408 0
 410 00f2 4B0B     		se_li %r27,48
 411              		.loc 1 411 0
 412 00f4 71600000 		e_li %r11,0
 413              		.loc 1 420 0
 414 00f8 4E0A     		se_li %r26,96
 415              		.loc 1 422 0
 416 00fa 2C0C     		se_bmaski %r28,0
 417              		.loc 1 433 0
 418 00fc 71000001 		e_li %r8,1
 419 0100 78000088 		e_b .L39
 420              	.LVL29:
 421              	.L29:
 422              		.loc 1 398 0
 423 0104 7CA61870 		e_slwi %r6,%r5,3
 424 0108 7CDE3214 		add %r6,%r30,%r6
 425 010c C366     		se_lwz %r6,12(%r6)
 426 010e 2206     		se_cmpli %r6,1
 427 0110 7A120094 		e_beq %cr0,.L31
 428              	.L44:
 429 0114 7A1000F2 		e_blt %cr0,.L32
 430 0118 2216     		se_cmpli %r6,2
 431 011a 7A020064 		e_bne %cr0,.L30
 432              		.loc 1 433 0
 433 011e C394     		se_lwz %r25,12(%r4)
 434 0120 7D1F3830 		slw %r31,%r8,%r7
 435              		.loc 1 436 0
 436 0124 7CE62870 		e_slwi %r6,%r7,5
 437              		.loc 1 433 0
 438 0128 45F9     		se_andc %r25,%r31
 439              		.loc 1 436 0
 440 012a 7CC43214 		add %r6,%r4,%r6
 441              		.loc 1 433 0
 442 012e D394     		se_stw %r25,12(%r4)
 443              		.loc 1 439 0
 444 0130 18678001 		e_addi %r3,%r7,1
 445              		.loc 1 436 0
 446 0134 7D26D92E 		stwx %r9,%r6,%r27
 447              		.loc 1 439 0
 448 0138 6C53     		se_slwi %r3, 5
 449              		.loc 1 456 0
 450 013a 2005     		se_addi %r5,1
 451              	.LVL30:
 452              		.loc 1 439 0
 453 013c 7C641A14 		add %r3,%r4,%r3
 454              		.loc 1 456 0
 455 0140 00C5     		se_extzb %r5
 456              	.LVL31:
GAS LISTING C:\Users\marky\AppData\Local\Temp\ccjSP3i4.s 			page 9


 457              		.loc 1 439 0
 458 0142 C393     		se_lwz %r25,12(%r3)
 459 0144 7579C98C 		e_rlwimi %r25,%r11,25,6,6
 460 0148 D393     		se_stw %r25,12(%r3)
 461              		.loc 1 440 0
 462 014a 55060020 		e_stw %r8,32(%r6)
 463              		.loc 1 441 0
 464 014e 55660024 		e_stw %r11,36(%r6)
 465              		.loc 1 444 0
 466 0152 CB96     		se_lwz %r25,44(%r6)
 467 0154 6189     		se_bclri %r25,24
 468 0156 DB96     		se_stw %r25,44(%r6)
 469              		.loc 1 447 0
 470 0158 CB96     		se_lwz %r25,44(%r6)
 471 015a 7D59CB78 		or %r25,%r10,%r25
 472 015e DB96     		se_stw %r25,44(%r6)
 473              		.loc 1 448 0
 474 0160 CB96     		se_lwz %r25,44(%r6)
 475 0162 44A9     		se_or %r25,%r26
 476 0164 DB96     		se_stw %r25,44(%r6)
 477              		.loc 1 450 0
 478 0166 C383     		se_lwz %r24,12(%r3)
 479 0168 809E     		se_lbz %r25,0(%r30)
 480 016a 04C9     		se_add %r25,%r28
 481 016c 7738D10A 		e_rlwimi %r24,%r25,26,4,5
 482 0170 D383     		se_stw %r24,12(%r3)
 483              		.loc 1 451 0
 484 0172 CB36     		se_lwz %r3,44(%r6)
 485 0174 6463     		se_bseti %r3,6
 486 0176 DB36     		se_stw %r3,44(%r6)
 487              		.loc 1 454 0
 488 0178 C364     		se_lwz %r6,12(%r4)
 489 017a 446F     		se_or %r31,%r6
 490 017c D3F4     		se_stw %r31,12(%r4)
 491              	.LVL32:
 492              	.L30:
 493              		.loc 1 393 0
 494 017e 2007     		se_addi %r7,1
 495              	.LVL33:
 496 0180 00C7     		se_extzb %r7
 497              	.LVL34:
 498 0182 0DD7     		se_cmpl %r7,%r29
 499 0184 7A110094 		e_bgt %cr0,.L35
 500              	.LVL35:
 501              	.L39:
 502              		.loc 1 395 0
 503 0188 2360     		se_cmpli %r0,23
 504 018a 7A02FF7A 		e_bne %cr0,.L29
 505 018e 2367     		se_cmpli %r7,23
 506 0190 7A12FFEE 		e_beq %cr0,.L30
 507              		.loc 1 398 0
 508 0194 7CA61870 		e_slwi %r6,%r5,3
 509 0198 7CDE3214 		add %r6,%r30,%r6
 510 019c C366     		se_lwz %r6,12(%r6)
 511 019e 2206     		se_cmpli %r6,1
 512 01a0 7A02FF74 		e_bne %cr0,.L44
 513              	.L31:
GAS LISTING C:\Users\marky\AppData\Local\Temp\ccjSP3i4.s 			page 10


 514              		.loc 1 405 0
 515 01a4 C3F4     		se_lwz %r31,12(%r4)
 516 01a6 4276     		se_slw %r6, %r7
 517              		.loc 1 408 0
 518 01a8 7CE32870 		e_slwi %r3,%r7,5
 519              		.loc 1 405 0
 520 01ac 456F     		se_andc %r31,%r6
 521              		.loc 1 408 0
 522 01ae 7C641A14 		add %r3,%r4,%r3
 523              		.loc 1 405 0
 524 01b2 D3F4     		se_stw %r31,12(%r4)
 525              		.loc 1 428 0
 526 01b4 2005     		se_addi %r5,1
 527              	.LVL36:
 528              		.loc 1 408 0
 529 01b6 7D23D92E 		stwx %r9,%r3,%r27
 530              		.loc 1 411 0
 531 01ba 1BE78001 		e_addi %r31,%r7,1
 532              		.loc 1 428 0
 533 01be 00C5     		se_extzb %r5
 534              	.LVL37:
 535              		.loc 1 411 0
 536 01c0 6C5F     		se_slwi %r31, 5
 537 01c2 7FE4FA14 		add %r31,%r4,%r31
 538 01c6 C39F     		se_lwz %r25,12(%r31)
 539 01c8 7579C98C 		e_rlwimi %r25,%r11,25,6,6
 540 01cc D39F     		se_stw %r25,12(%r31)
 541              		.loc 1 412 0
 542 01ce 55630020 		e_stw %r11,32(%r3)
 543              		.loc 1 413 0
 544 01d2 55630024 		e_stw %r11,36(%r3)
 545              		.loc 1 416 0
 546 01d6 CB93     		se_lwz %r25,44(%r3)
 547 01d8 6589     		se_bseti %r25,24
 548 01da DB93     		se_stw %r25,44(%r3)
 549              		.loc 1 419 0
 550 01dc CB93     		se_lwz %r25,44(%r3)
 551 01de 7D59CB78 		or %r25,%r10,%r25
 552 01e2 DB93     		se_stw %r25,44(%r3)
 553              		.loc 1 420 0
 554 01e4 CB93     		se_lwz %r25,44(%r3)
 555 01e6 44A9     		se_or %r25,%r26
 556 01e8 DB93     		se_stw %r25,44(%r3)
 557              		.loc 1 422 0
 558 01ea C38F     		se_lwz %r24,12(%r31)
 559 01ec 809E     		se_lbz %r25,0(%r30)
 560 01ee 04C9     		se_add %r25,%r28
 561 01f0 7738D10A 		e_rlwimi %r24,%r25,26,4,5
 562 01f4 D38F     		se_stw %r24,12(%r31)
 563              		.loc 1 423 0
 564 01f6 CBF3     		se_lwz %r31,44(%r3)
 565 01f8 646F     		se_bseti %r31,6
 566 01fa DBF3     		se_stw %r31,44(%r3)
 567              		.loc 1 426 0
 568 01fc C334     		se_lwz %r3,12(%r4)
 569 01fe 4436     		se_or %r6,%r3
 570 0200 D364     		se_stw %r6,12(%r4)
GAS LISTING C:\Users\marky\AppData\Local\Temp\ccjSP3i4.s 			page 11


 571 0202 79FFFF7C 		e_b .L30
 572              	.L32:
 573              		.loc 1 400 0
 574 0206 2005     		se_addi %r5,1
 575              	.LVL38:
 576 0208 00C5     		se_extzb %r5
 577              	.LVL39:
 578 020a 79FFFF74 		e_b .L30
 579              	.LVL40:
 580              	.L43:
 581              	.LBE5:
 582              	.LBE4:
 583              		.loc 1 540 0
 584 020e 01F3     		se_mr %r3,%r31
 585 0210 78000001 		e_bl pwm_active_emios0_clock
 586              	.LVL41:
 587 0214 79FFFE20 		e_b .L26
 588              	.LVL42:
 589              	.L35:
 590              	.LBB7:
 591              	.LBB6:
 592              		.loc 1 465 0
 593 0218 C374     		se_lwz %r7,12(%r4)
 594 021a 7D8C3B78 		or %r12,%r12,%r7
 595 021e 5584000C 		e_stw %r12,12(%r4)
 596 0222 79FFFE12 		e_b .L26
 597              	.LVL43:
 598              	.L38:
 599              		.loc 1 367 0
 600 0226 71400000 		e_li %r10,0
 601              		.loc 1 366 0
 602 022a 49FD     		se_li %r29,31
 603              		.loc 1 365 0
 604 022c 4807     		se_li %r7,0
 605 022e 79FFFE44 		e_b .L24
 606              	.LVL44:
 607              	.L23:
 608              	.LBE6:
 609              	.LBE7:
 610              		.loc 1 540 0
 611 0232 01F3     		se_mr %r3,%r31
 612 0234 78000001 		e_bl pwm_active_emios0_clock
 613              	.LVL45:
 614 0238 79FFFE1C 		e_b .L37
 615              		.cfi_endproc
 616              	.LFE8:
 617              		.size	pwm_lld_start, .-pwm_lld_start
 618              		.section	.text.pwm_lld_stop,"axv",@progbits
 619              		.align 1
 620              		.p2align 4,,15
 621              		.globl pwm_lld_stop
 622              		.type	pwm_lld_stop, @function
 623              	pwm_lld_stop:
 624              	.LFB9:
 625              		.loc 1 614 0
 626              		.cfi_startproc
 627              	.LVL46:
GAS LISTING C:\Users\marky\AppData\Local\Temp\ccjSP3i4.s 			page 12


 628 0000 182106F0 		e_stwu %r1,-16(%r1)
 629              	.LCFI5:
 630              		.cfi_def_cfa_offset 16
 631 0004 0080     		se_mflr %r0
 632 0006 D3F1     		se_stw %r31,12(%r1)
 633 0008 D501     		se_stw %r0,20(%r1)
 634              		.cfi_offset 65, 4
 635              		.cfi_offset 31, -4
 636              		.loc 1 614 0
 637 000a 013F     		se_mr %r31,%r3
 638              		.loc 1 618 0
 639 000c 78000001 		e_bl osalEnterCritical
 640              	.LVL47:
 641              		.loc 1 623 0
 642 0010 70E0E000 		e_lis %r7,.LANCHOR0@ha
 643 0014 1CE70000 		e_la %r7,.LANCHOR0@l(%r7)
 644 0018 0C7F     		se_cmp %r31,%r7
 645 001a 7A12001C 		e_beq %cr0,.L50
 646              		.loc 1 724 0
 647 001e C27F     		se_lwz %r7,8(%r31)
 648 0020 70D8E3FA 		e_lis %r6,0xc3fa
 649 0024 0C67     		se_cmp %r7,%r6
 650 0026 7A12003A 		e_beq %cr0,.L51
 651              	.L48:
 652              		.loc 1 737 0
 653 002a C501     		se_lwz %r0,20(%r1)
 654 002c C3F1     		se_lwz %r31,12(%r1)
 655              	.LVL48:
 656 002e 0090     		se_mtlr %r0
 657              		.cfi_remember_state
 658              		.cfi_restore 65
 659 0030 20F1     		se_addi %r1,16
 660              	.LCFI6:
 661              		.cfi_restore 31
 662              		.cfi_def_cfa_offset 0
 663              		.loc 1 736 0
 664 0032 78000000 		e_b osalExitCritical
 665              	.LVL49:
 666              	.L50:
 667              	.LCFI7:
 668              		.cfi_restore_state
 669              		.loc 1 626 0
 670 0036 4A06     		se_li %r6,32
 671 0038 C24F     		se_lwz %r4,8(%r31)
 672              		.loc 1 623 0
 673 003a 4807     		se_li %r7,0
 674              		.loc 1 626 0
 675 003c 4805     		se_li %r5,0
 676 003e 00B6     		se_mtctr %r6
 677              	.L47:
 678              	.LVL50:
 679              		.loc 1 626 0 is_stmt 0 discriminator 3
 680 0040 2007     		se_addi %r7,1
 681              	.LVL51:
 682 0042 7CE62870 		e_slwi %r6,%r7,5
 683 0046 7CC43214 		add %r6,%r4,%r6
 684 004a D356     		se_stw %r5,12(%r6)
GAS LISTING C:\Users\marky\AppData\Local\Temp\ccjSP3i4.s 			page 13


 685              	.LVL52:
 686              		.loc 1 625 0 is_stmt 1 discriminator 3
 687 004c 7A20FFF4 		e_bdnz .L47
 688              		.loc 1 628 0
 689 0050 78000001 		e_bl decrease_emios0_active_ch_group
 690              	.LVL53:
 691              		.loc 1 724 0
 692 0054 C27F     		se_lwz %r7,8(%r31)
 693 0056 70D8E3FA 		e_lis %r6,0xc3fa
 694 005a 0C67     		se_cmp %r7,%r6
 695 005c 7A02FFCE 		e_bne %cr0,.L48
 696              	.L51:
 697              		.loc 1 725 0
 698 0060 01F3     		se_mr %r3,%r31
 699 0062 78000001 		e_bl pwm_deactive_emios0_clock
 700              	.LVL54:
 701              		.loc 1 737 0
 702 0066 C501     		se_lwz %r0,20(%r1)
 703 0068 C3F1     		se_lwz %r31,12(%r1)
 704              	.LVL55:
 705 006a 0090     		se_mtlr %r0
 706              		.cfi_restore 65
 707 006c 20F1     		se_addi %r1,16
 708              	.LCFI8:
 709              		.cfi_restore 31
 710              		.cfi_def_cfa_offset 0
 711              		.loc 1 736 0
 712 006e 78000000 		e_b osalExitCritical
 713              	.LVL56:
 714              		.cfi_endproc
 715              	.LFE9:
 716              		.size	pwm_lld_stop, .-pwm_lld_stop
 717              		.section	.text.pwm_lld_change_period,"axv",@progbits
 718              		.align 1
 719              		.p2align 4,,15
 720              		.globl pwm_lld_change_period
 721              		.type	pwm_lld_change_period, @function
 722              	pwm_lld_change_period:
 723              	.LFB10:
 724              		.loc 1 755 0
 725              		.cfi_startproc
 726              	.LVL57:
 727 0000 182106F0 		e_stwu %r1,-16(%r1)
 728              	.LCFI9:
 729              		.cfi_def_cfa_offset 16
 730 0004 0080     		se_mflr %r0
 731 0006 1BC10908 		e_stmw %r30,8(%r1)
 732 000a D501     		se_stw %r0,20(%r1)
 733              		.cfi_offset 65, 4
 734              		.cfi_offset 30, -8
 735              		.cfi_offset 31, -4
 736              		.loc 1 755 0
 737 000c 013F     		se_mr %r31,%r3
 738 000e 014E     		se_mr %r30,%r4
 739              		.loc 1 757 0
 740 0010 78000001 		e_bl osalEnterCritical
 741              	.LVL58:
GAS LISTING C:\Users\marky\AppData\Local\Temp\ccjSP3i4.s 			page 14


 742              		.loc 1 760 0
 743 0014 70E0E000 		e_lis %r7,.LANCHOR0@ha
 744 0018 1CE70000 		e_la %r7,.LANCHOR0@l(%r7)
 745 001c 0C7F     		se_cmp %r31,%r7
 746 001e 7A120012 		e_beq %cr0,.L54
 747              		.loc 1 830 0
 748 0022 C501     		se_lwz %r0,20(%r1)
 749 0024 1BC10808 		e_lmw %r30,8(%r1)
 750              	.LVL59:
 751 0028 0090     		se_mtlr %r0
 752              		.cfi_remember_state
 753              		.cfi_restore 65
 754 002a 20F1     		se_addi %r1,16
 755              	.LCFI10:
 756              		.cfi_restore 31
 757              		.cfi_restore 30
 758              		.cfi_def_cfa_offset 0
 759              		.loc 1 829 0
 760 002c 78000000 		e_b osalExitCritical
 761              	.LVL60:
 762              	.L54:
 763              	.LCFI11:
 764              		.cfi_restore_state
 765              		.loc 1 762 0
 766 0030 C27F     		se_lwz %r7,8(%r31)
 767              		.loc 1 761 0
 768 0032 D1EF     		se_stw %r30,4(%r31)
 769              		.loc 1 762 0
 770 0034 57C70300 		e_stw %r30,768(%r7)
 771              		.loc 1 830 0
 772 0038 C501     		se_lwz %r0,20(%r1)
 773 003a 1BC10808 		e_lmw %r30,8(%r1)
 774              	.LVL61:
 775 003e 0090     		se_mtlr %r0
 776              		.cfi_restore 65
 777 0040 20F1     		se_addi %r1,16
 778              	.LCFI12:
 779              		.cfi_restore 30
 780              		.cfi_restore 31
 781              		.cfi_def_cfa_offset 0
 782              		.loc 1 829 0
 783 0042 78000000 		e_b osalExitCritical
 784              	.LVL62:
 785              		.cfi_endproc
 786              	.LFE10:
 787              		.size	pwm_lld_change_period, .-pwm_lld_change_period
 788              		.section	.text.pwm_lld_enable_channel,"axv",@progbits
 789              		.align 1
 790              		.p2align 4,,15
 791              		.globl pwm_lld_enable_channel
 792              		.type	pwm_lld_enable_channel, @function
 793              	pwm_lld_enable_channel:
 794              	.LFB12:
 795              		.loc 1 913 0
 796              		.cfi_startproc
 797              	.LVL63:
 798 0000 182106E8 		e_stwu %r1,-24(%r1)
GAS LISTING C:\Users\marky\AppData\Local\Temp\ccjSP3i4.s 			page 15


 799              	.LCFI13:
 800              		.cfi_def_cfa_offset 24
 801 0004 0080     		se_mflr %r0
 802 0006 1B810908 		e_stmw %r28,8(%r1)
 803 000a D701     		se_stw %r0,28(%r1)
 804              		.cfi_offset 65, 4
 805              		.cfi_offset 28, -16
 806              		.cfi_offset 29, -12
 807              		.cfi_offset 30, -8
 808              		.cfi_offset 31, -4
 809              		.loc 1 913 0
 810 000c 013F     		se_mr %r31,%r3
 811 000e 014E     		se_mr %r30,%r4
 812 0010 015D     		se_mr %r29,%r5
 813 0012 016C     		se_mr %r28,%r6
 814              		.loc 1 915 0
 815 0014 78000001 		e_bl osalEnterCritical
 816              	.LVL64:
 817              		.loc 1 918 0
 818 0018 70E0E000 		e_lis %r7,.LANCHOR0@ha
 819 001c 1CE70000 		e_la %r7,.LANCHOR0@l(%r7)
 820 0020 0C7F     		se_cmp %r31,%r7
 821 0022 7A120012 		e_beq %cr0,.L63
 822              	.LVL65:
 823              	.L57:
 824              		.loc 1 978 0
 825 0026 C701     		se_lwz %r0,28(%r1)
 826 0028 1B810808 		e_lmw %r28,8(%r1)
 827              	.LVL66:
 828 002c 0090     		se_mtlr %r0
 829              		.cfi_remember_state
 830              		.cfi_restore 65
 831 002e 2171     		se_addi %r1,24
 832              	.LCFI14:
 833              		.cfi_restore 31
 834              		.cfi_restore 30
 835              		.cfi_restore 29
 836              		.cfi_restore 28
 837              		.cfi_def_cfa_offset 0
 838              		.loc 1 977 0
 839 0030 78000000 		e_b osalExitCritical
 840              	.LVL67:
 841              	.L63:
 842              	.LCFI15:
 843              		.cfi_restore_state
 844              	.LBB10:
 845              	.LBB11:
 846              		.loc 1 851 0
 847 0034 8C4F     		se_lbz %r4,12(%r31)
 848 0036 2364     		se_cmpli %r4,23
 849 0038 7A120092 		e_beq %cr0,.L64
 850 003c 18E48001 		e_addi %r7,%r4,1
 851              		.loc 1 860 0
 852 0040 7CFE3A14 		add %r7,%r30,%r7
 853 0044 00C7     		se_extzb %r7
 854              	.LVL68:
 855              	.L59:
GAS LISTING C:\Users\marky\AppData\Local\Temp\ccjSP3i4.s 			page 16


 856              		.loc 1 864 0
 857 0046 73E0E000 		e_lis %r31,.LANCHOR0@ha
 858              	.LVL69:
 859 004a 4810     		se_li %r0,1
 860 004c 1CDF0000 		e_la %r6,.LANCHOR0@l(%r31)
 861 0050 7C033830 		slw %r3,%r0,%r7
 862 0054 C266     		se_lwz %r6,8(%r6)
 863              		.loc 1 867 0
 864 0056 7CE52870 		e_slwi %r5,%r7,5
 865              		.loc 1 864 0
 866 005a 5166000C 		e_lwz %r11,12(%r6)
 867              		.loc 1 867 0
 868 005e 7CA62A14 		add %r5,%r6,%r5
 869              		.loc 1 864 0
 870 0062 7D631878 		andc %r3,%r11,%r3
 871              		.loc 1 872 0
 872 0066 04CD     		se_add %r29,%r28
 873              	.LVL70:
 874              		.loc 1 864 0
 875 0068 D336     		se_stw %r3,12(%r6)
 876              		.loc 1 875 0
 877 006a 6C3E     		se_slwi %r30, 3
 878              	.LVL71:
 879              		.loc 1 867 0
 880 006c 6203     		se_bgeni %r3,0
 881 006e 7070C001 		e_or2i %r3,32769
 882 0072 DC35     		se_stw %r3,48(%r5)
 883              		.loc 1 871 0
 884 0074 D8C5     		se_stw %r28,32(%r5)
 885              		.loc 1 875 0
 886 0076 507F0000 		e_lwz %r3,.LANCHOR0@l(%r31)
 887              		.loc 1 872 0
 888 007a D9D5     		se_stw %r29,36(%r5)
 889              		.loc 1 875 0
 890 007c 7FC3F214 		add %r30,%r3,%r30
 891 0080 C45E     		se_lwz %r5,16(%r30)
 892 0082 2A05     		se_cmpi %r5,0
 893 0084 7A120014 		e_beq %cr0,.L60
 894              		.loc 1 876 0
 895 0088 2007     		se_addi %r7,1
 896              	.LVL72:
 897 008a 6C57     		se_slwi %r7, 5
 898              	.LVL73:
 899 008c 7CE63A14 		add %r7,%r6,%r7
 900 0090 C357     		se_lwz %r5,12(%r7)
 901 0092 74058B9C 		e_rlwimi %r5,%r0,17,14,14
 902 0096 D357     		se_stw %r5,12(%r7)
 903              	.L60:
 904              		.loc 1 880 0
 905 0098 C376     		se_lwz %r7,12(%r6)
 906 009a 4047     		se_srw %r7,%r4
 907 009c 67F7     		se_btsti %r7,31
 908 009e 7A12FF88 		e_beq %cr0,.L57
 909              		.loc 1 882 0
 910 00a2 C306     		se_lwz %r0,12(%r6)
 911 00a4 4815     		se_li %r5,1
 912 00a6 7CA72030 		slw %r7,%r5,%r4
GAS LISTING C:\Users\marky\AppData\Local\Temp\ccjSP3i4.s 			page 17


 913 00aa 7C073878 		andc %r7,%r0,%r7
 914 00ae D376     		se_stw %r7,12(%r6)
 915              		.loc 1 885 0
 916 00b0 C273     		se_lwz %r7,8(%r3)
 917 00b2 2A07     		se_cmpi %r7,0
 918 00b4 7A12FF72 		e_beq %cr0,.L57
 919              		.loc 1 886 0
 920 00b8 2004     		se_addi %r4,1
 921 00ba 6C54     		se_slwi %r4, 5
 922 00bc 0446     		se_add %r6,%r4
 923 00be C376     		se_lwz %r7,12(%r6)
 924 00c0 74A78B9C 		e_rlwimi %r7,%r5,17,14,14
 925 00c4 D376     		se_stw %r7,12(%r6)
 926 00c6 79FFFF60 		e_b .L57
 927              	.LVL74:
 928              	.L64:
 929              		.loc 1 853 0
 930 00ca 01E7     		se_mr %r7,%r30
 931 00cc 235E     		se_cmpli %r30,22
 932 00ce 7A01FF78 		e_ble %cr0,.L59
 933              	.LVL75:
 934              		.loc 1 856 0
 935 00d2 18FE8001 		e_addi %r7,%r30,1
 936              	.LVL76:
 937 00d6 00C7     		se_extzb %r7
 938              	.LVL77:
 939 00d8 79FFFF6E 		e_b .L59
 940              	.LBE11:
 941              	.LBE10:
 942              		.cfi_endproc
 943              	.LFE12:
 944              		.size	pwm_lld_enable_channel, .-pwm_lld_enable_channel
 945              		.section	.text.pwm_lld_disable_channel,"axv",@progbits
 946              		.align 1
 947              		.p2align 4,,15
 948              		.globl pwm_lld_disable_channel
 949              		.type	pwm_lld_disable_channel, @function
 950              	pwm_lld_disable_channel:
 951              	.LFB14:
 952              		.loc 1 1048 0
 953              		.cfi_startproc
 954              	.LVL78:
 955 0000 182106F0 		e_stwu %r1,-16(%r1)
 956              	.LCFI16:
 957              		.cfi_def_cfa_offset 16
 958 0004 0080     		se_mflr %r0
 959 0006 1BC10908 		e_stmw %r30,8(%r1)
 960 000a D501     		se_stw %r0,20(%r1)
 961              		.cfi_offset 65, 4
 962              		.cfi_offset 30, -8
 963              		.cfi_offset 31, -4
 964              		.loc 1 1048 0
 965 000c 013F     		se_mr %r31,%r3
 966 000e 014E     		se_mr %r30,%r4
 967              		.loc 1 1050 0
 968 0010 78000001 		e_bl osalEnterCritical
 969              	.LVL79:
GAS LISTING C:\Users\marky\AppData\Local\Temp\ccjSP3i4.s 			page 18


 970              		.loc 1 1053 0
 971 0014 70E0E000 		e_lis %r7,.LANCHOR0@ha
 972 0018 1CE70000 		e_la %r7,.LANCHOR0@l(%r7)
 973 001c 0C7F     		se_cmp %r31,%r7
 974 001e 7A120012 		e_beq %cr0,.L75
 975              	.L67:
 976              		.loc 1 1113 0
 977 0022 C501     		se_lwz %r0,20(%r1)
 978 0024 1BC10808 		e_lmw %r30,8(%r1)
 979              	.LVL80:
 980 0028 0090     		se_mtlr %r0
 981              		.cfi_remember_state
 982              		.cfi_restore 65
 983 002a 20F1     		se_addi %r1,16
 984              	.LCFI17:
 985              		.cfi_restore 31
 986              		.cfi_restore 30
 987              		.cfi_def_cfa_offset 0
 988              		.loc 1 1112 0
 989 002c 78000000 		e_b osalExitCritical
 990              	.LVL81:
 991              	.L75:
 992              	.LCFI18:
 993              		.cfi_restore_state
 994              	.LBB14:
 995              	.LBB15:
 996              		.loc 1 996 0
 997 0030 8C5F     		se_lbz %r5,12(%r31)
 998 0032 2365     		se_cmpli %r5,23
 999 0034 7A12006E 		e_beq %cr0,.L76
 1000              		.loc 1 1008 0
 1001 0038 C27F     		se_lwz %r7,8(%r31)
 1002              		.loc 1 1005 0
 1003 003a 2E7E     		se_andi %r30,7
 1004              	.LVL82:
 1005              		.loc 1 1008 0
 1006 003c 6203     		se_bgeni %r3,0
 1007 003e 200E     		se_addi %r30,1
 1008              	.LVL83:
 1009 0040 7070C001 		e_or2i %r3,32769
 1010 0044 7FC42870 		e_slwi %r4,%r30,5
 1011              		.loc 1 1012 0
 1012 0048 18DE8001 		e_addi %r6,%r30,1
 1013              		.loc 1 1008 0
 1014 004c 7C872214 		add %r4,%r7,%r4
 1015              		.loc 1 1012 0
 1016 0050 6C56     		se_slwi %r6, 5
 1017              		.loc 1 1008 0
 1018 0052 DC34     		se_stw %r3,48(%r4)
 1019              		.loc 1 1012 0
 1020 0054 7CC73214 		add %r6,%r7,%r6
 1021 0058 4803     		se_li %r3,0
 1022 005a C346     		se_lwz %r4,12(%r6)
 1023 005c 74648B9C 		e_rlwimi %r4,%r3,17,14,14
 1024              		.loc 1 1015 0
 1025 0060 4813     		se_li %r3,1
 1026              		.loc 1 1012 0
GAS LISTING C:\Users\marky\AppData\Local\Temp\ccjSP3i4.s 			page 19


 1027 0062 D346     		se_stw %r4,12(%r6)
 1028              		.loc 1 1015 0
 1029 0064 42E3     		se_slw %r3, %r30
 1030 0066 C347     		se_lwz %r4,12(%r7)
 1031 0068 7C662378 		or %r6,%r3,%r4
 1032 006c D367     		se_stw %r6,12(%r7)
 1033              		.loc 1 1019 0
 1034 006e C347     		se_lwz %r4,12(%r7)
 1035              	.LVL84:
 1036              	.L72:
 1037              		.loc 1 1023 0
 1038 0070 70C000FE 		e_li %r6,254
 1039 0074 4256     		se_slw %r6, %r5
 1040 0076 4664     		se_and %r4,%r6
 1041              	.LVL85:
 1042              		.loc 1 1022 0
 1043 0078 0D46     		se_cmpl %r6,%r4
 1044 007a 7A02FFA8 		e_bne %cr0,.L67
 1045              	.L71:
 1046              		.loc 1 1025 0
 1047 007e 18C58001 		e_addi %r6,%r5,1
 1048              		.loc 1 1028 0
 1049 0082 4814     		se_li %r4,1
 1050              		.loc 1 1025 0
 1051 0084 6C56     		se_slwi %r6, 5
 1052              		.loc 1 1028 0
 1053 0086 4254     		se_slw %r4, %r5
 1054              		.loc 1 1025 0
 1055 0088 7CC73214 		add %r6,%r7,%r6
 1056 008c 4803     		se_li %r3,0
 1057 008e C356     		se_lwz %r5,12(%r6)
 1058 0090 74658B9C 		e_rlwimi %r5,%r3,17,14,14
 1059 0094 D356     		se_stw %r5,12(%r6)
 1060              		.loc 1 1028 0
 1061 0096 C357     		se_lwz %r5,12(%r7)
 1062 0098 7C862B78 		or %r6,%r4,%r5
 1063 009c D367     		se_stw %r6,12(%r7)
 1064 009e 79FFFF84 		e_b .L67
 1065              	.LVL86:
 1066              	.L76:
 1067              		.loc 1 998 0
 1068 00a2 235E     		se_cmpli %r30,22
 1069 00a4 7A010008 		e_ble %cr0,.L69
 1070              		.loc 1 1001 0
 1071 00a8 200E     		se_addi %r30,1
 1072              	.LVL87:
 1073 00aa 00CE     		se_extzb %r30
 1074              	.LVL88:
 1075              	.L69:
 1076              		.loc 1 1008 0
 1077 00ac 7FC42870 		e_slwi %r4,%r30,5
 1078 00b0 70E0E000 		e_lis %r7,.LANCHOR0+8@ha
 1079              		.loc 1 1012 0
 1080 00b4 18DE8001 		e_addi %r6,%r30,1
 1081              		.loc 1 1008 0
 1082 00b8 50E70000 		e_lwz %r7,.LANCHOR0+8@l(%r7)
 1083 00bc 6203     		se_bgeni %r3,0
GAS LISTING C:\Users\marky\AppData\Local\Temp\ccjSP3i4.s 			page 20


 1084 00be 7C872214 		add %r4,%r7,%r4
 1085 00c2 7070C001 		e_or2i %r3,32769
 1086              		.loc 1 1012 0
 1087 00c6 6C56     		se_slwi %r6, 5
 1088              		.loc 1 1008 0
 1089 00c8 DC34     		se_stw %r3,48(%r4)
 1090              		.loc 1 1012 0
 1091 00ca 7CC73214 		add %r6,%r7,%r6
 1092              		.loc 1 1015 0
 1093 00ce 4813     		se_li %r3,1
 1094              		.loc 1 1012 0
 1095 00d0 C346     		se_lwz %r4,12(%r6)
 1096              		.loc 1 1015 0
 1097 00d2 42E3     		se_slw %r3, %r30
 1098              		.loc 1 1012 0
 1099 00d4 4800     		se_li %r0,0
 1100 00d6 74048B9C 		e_rlwimi %r4,%r0,17,14,14
 1101 00da D346     		se_stw %r4,12(%r6)
 1102              		.loc 1 1015 0
 1103 00dc C347     		se_lwz %r4,12(%r7)
 1104 00de 7C662378 		or %r6,%r3,%r4
 1105 00e2 D367     		se_stw %r6,12(%r7)
 1106              		.loc 1 1019 0
 1107 00e4 C347     		se_lwz %r4,12(%r7)
 1108              	.LVL89:
 1109              		.loc 1 1022 0
 1110 00e6 1804AE7F 		e_cmpi %cr0,%r4,-8388609
 1111 00ea 7A02FF86 		e_bne %cr0,.L72
 1112 00ee 4975     		se_li %r5,23
 1113 00f0 79FFFF8E 		e_b .L71
 1114              	.LBE15:
 1115              	.LBE14:
 1116              		.cfi_endproc
 1117              	.LFE14:
 1118              		.size	pwm_lld_disable_channel, .-pwm_lld_disable_channel
 1119              		.globl PWMD1
 1120              		.section	.bss.PWMD1,"aw",@nobits
 1121              		.align 2
 1122              		.set	.LANCHOR0,. + 0
 1123              		.type	PWMD1, @object
 1124              		.size	PWMD1, 16
 1125              	PWMD1:
 1126 0000 00000000 		.zero	16
 1126      00000000 
 1126      00000000 
 1126      00000000 
 1127              		.section	".text","axv"
 1128              	.Letext0:
 1129              		.file 2 "c:\\spc5studio\\eclipse\\plugins\\com.st.tools.spc5.tools.gnu.gcc.ppcvle.win32_4.9.4.2018
 1130              		.file 3 "c:\\spc5studio\\eclipse\\plugins\\com.st.tools.spc5.tools.gnu.gcc.ppcvle.win32_4.9.4.2018
 1131              		.file 4 "./components/spc560bxx_platform_component_rla/lib/include/typedefs.h"
 1132              		.file 5 "./components/spc560bxx_platform_component_rla/lib/include/xpc560b.h"
 1133              		.file 6 "./components/spc560bxx_low_level_drivers_component_rla/lib/include/pwm_lld.h"
 1134              		.file 7 "./components/spc560bxx_low_level_drivers_component_rla/lib/include/spc5_emios.h"
 1135              		.file 8 "./components/spc560bxx_osal_component_rla/lib/include/osal.h"