GAS LISTING C:\Users\marky\AppData\Local\Temp\ccssf6Jk.s 			page 1


   1              		.file	"queue.c"
   2              		.section	".text","axv"
   3              	.Ltext0:
   4              		.cfi_sections	.debug_frame
   5              		.section	.text.prvCopyDataToQueue,"axv",@progbits
   6              		.align 1
   7              		.p2align 4,,15
   8              		.type	prvCopyDataToQueue, @function
   9              	prvCopyDataToQueue:
  10              	.LFB18:
  11              		.file 1 "./components/spc5_freertos_component_rla/lib/src/queue.c"
  12              		.loc 1 2071 0
  13              		.cfi_startproc
  14              	.LVL0:
  15 0000 182106E8 		e_stwu %r1,-24(%r1)
  16              	.LCFI0:
  17              		.cfi_def_cfa_offset 24
  18 0004 0080     		se_mflr %r0
  19 0006 1BA1090C 		e_stmw %r29,12(%r1)
  20 000a D701     		se_stw %r0,28(%r1)
  21              		.cfi_offset 65, 4
  22              		.cfi_offset 29, -12
  23              		.cfi_offset 30, -8
  24              		.cfi_offset 31, -4
  25              		.loc 1 2071 0
  26 000c 015D     		se_mr %r29,%r5
  27 000e 013F     		se_mr %r31,%r3
  28              		.loc 1 2079 0
  29 0010 50A30040 		e_lwz %r5,64(%r3)
  30              	.LVL1:
  31              		.loc 1 2077 0
  32 0014 CEE3     		se_lwz %r30,56(%r3)
  33              	.LVL2:
  34              		.loc 1 2079 0
  35 0016 2A05     		se_cmpi %r5,0
  36 0018 7A02001E 		e_bne %cr0,.L2
  37              		.loc 1 2083 0
  38 001c C0D3     		se_lwz %r29,0(%r3)
  39              	.LVL3:
  40 001e 2A0D     		se_cmpi %r29,0
  41 0020 7A120082 		e_beq %cr0,.L13
  42              	.LVL4:
  43              	.L11:
  44 0024 200E     		se_addi %r30,1
  45              	.LVL5:
  46              		.loc 1 2072 0
  47 0026 4803     		se_li %r3,0
  48              	.LVL6:
  49              	.L4:
  50              		.loc 1 2146 0
  51 0028 C701     		se_lwz %r0,28(%r1)
  52 002a 0090     		se_mtlr %r0
  53              		.cfi_remember_state
  54              		.cfi_restore 65
  55              		.loc 1 2143 0
  56 002c DEEF     		se_stw %r30,56(%r31)
  57              		.loc 1 2146 0
GAS LISTING C:\Users\marky\AppData\Local\Temp\ccssf6Jk.s 			page 2


  58 002e 1BA1080C 		e_lmw %r29,12(%r1)
  59              	.LVL7:
  60 0032 2171     		se_addi %r1,24
  61              	.LCFI1:
  62              		.cfi_restore 31
  63              		.cfi_restore 30
  64              		.cfi_restore 29
  65              		.cfi_def_cfa_offset 0
  66 0034 0004     		se_blr
  67              	.LVL8:
  68              	.L2:
  69              	.LCFI2:
  70              		.cfi_restore_state
  71              		.loc 1 2096 0
  72 0036 2A0D     		se_cmpi %r29,0
  73 0038 7A020034 		e_bne %cr0,.L5
  74              		.loc 1 2098 0
  75 003c C133     		se_lwz %r3,4(%r3)
  76              	.LVL9:
  77 003e 78000001 		e_bl memcpy
  78              	.LVL10:
  79              		.loc 1 2099 0
  80 0042 C16F     		se_lwz %r6,4(%r31)
  81 0044 50FF0040 		e_lwz %r7,64(%r31)
  82              		.loc 1 2100 0
  83 0048 C25F     		se_lwz %r5,8(%r31)
  84              		.loc 1 2099 0
  85 004a 7CE63A14 		add %r7,%r6,%r7
  86 004e D17F     		se_stw %r7,4(%r31)
  87              		.loc 1 2100 0
  88 0050 0D57     		se_cmpl %r7,%r5
  89 0052 7A10FFD2 		e_blt %cr0,.L11
  90              		.loc 1 2146 0
  91 0056 C701     		se_lwz %r0,28(%r1)
  92 0058 0090     		se_mtlr %r0
  93              		.cfi_remember_state
  94              		.cfi_restore 65
  95              		.loc 1 2102 0
  96 005a C07F     		se_lwz %r7,0(%r31)
  97 005c 200E     		se_addi %r30,1
  98              	.LVL11:
  99 005e D17F     		se_stw %r7,4(%r31)
 100              		.loc 1 2143 0
 101 0060 DEEF     		se_stw %r30,56(%r31)
 102              		.loc 1 2072 0
 103 0062 4803     		se_li %r3,0
 104              	.LVL12:
 105              		.loc 1 2146 0
 106 0064 1BA1080C 		e_lmw %r29,12(%r1)
 107              	.LVL13:
 108 0068 2171     		se_addi %r1,24
 109              	.LCFI3:
 110              		.cfi_restore 29
 111              		.cfi_restore 30
 112              		.cfi_restore 31
 113              		.cfi_def_cfa_offset 0
 114 006a 0004     		se_blr
GAS LISTING C:\Users\marky\AppData\Local\Temp\ccssf6Jk.s 			page 3


 115              	.LVL14:
 116              	.L5:
 117              	.LCFI4:
 118              		.cfi_restore_state
 119              		.loc 1 2111 0
 120 006c C333     		se_lwz %r3,12(%r3)
 121              	.LVL15:
 122 006e 78000001 		e_bl memcpy
 123              	.LVL16:
 124              		.loc 1 2112 0
 125 0072 C37F     		se_lwz %r7,12(%r31)
 126 0074 50DF0040 		e_lwz %r6,64(%r31)
 127              		.loc 1 2113 0
 128 0078 C05F     		se_lwz %r5,0(%r31)
 129              		.loc 1 2112 0
 130 007a 0036     		se_neg %r6
 131 007c 0467     		se_add %r7,%r6
 132 007e D37F     		se_stw %r7,12(%r31)
 133              		.loc 1 2113 0
 134 0080 0D57     		se_cmpl %r7,%r5
 135 0082 7A00000C 		e_bge %cr0,.L7
 136              		.loc 1 2115 0
 137 0086 C27F     		se_lwz %r7,8(%r31)
 138 0088 7CC73214 		add %r6,%r7,%r6
 139 008c D36F     		se_stw %r6,12(%r31)
 140              	.L7:
 141              		.loc 1 2122 0
 142 008e 2A2D     		se_cmpi %r29,2
 143 0090 7A02FF94 		e_bne %cr0,.L11
 144              		.loc 1 2124 0
 145 0094 2A0E     		se_cmpi %r30,0
 146 0096 4817     		se_li %r7,1
 147 0098 4803     		se_li %r3,0
 148 009a 7FC7F09E 		isel %r30,%r7,%r30,2
 149              	.LVL17:
 150 009e 79FFFF8A 		e_b .L4
 151              	.LVL18:
 152              	.L13:
 153              		.loc 1 2086 0
 154 00a2 C233     		se_lwz %r3,8(%r3)
 155              	.LVL19:
 156 00a4 200E     		se_addi %r30,1
 157              	.LVL20:
 158 00a6 78000001 		e_bl xTaskPriorityDisinherit
 159              	.LVL21:
 160              		.loc 1 2087 0
 161 00aa D2DF     		se_stw %r29,8(%r31)
 162 00ac 79FFFF7C 		e_b .L4
 163              		.cfi_endproc
 164              	.LFE18:
 165              		.size	prvCopyDataToQueue, .-prvCopyDataToQueue
 166              		.section	.text.prvCopyDataFromQueue,"axv",@progbits
 167              		.align 1
 168              		.p2align 4,,15
 169              		.type	prvCopyDataFromQueue, @function
 170              	prvCopyDataFromQueue:
 171              	.LFB19:
GAS LISTING C:\Users\marky\AppData\Local\Temp\ccssf6Jk.s 			page 4


 172              		.loc 1 2150 0
 173              		.cfi_startproc
 174              	.LVL22:
 175              		.loc 1 2151 0
 176 0000 50A30040 		e_lwz %r5,64(%r3)
 177 0004 2A05     		se_cmpi %r5,0
 178 0006 7A12001E 		e_beq %cr0,.L14
 179              		.loc 1 2153 0
 180 000a C373     		se_lwz %r7,12(%r3)
 181              		.loc 1 2154 0
 182 000c C263     		se_lwz %r6,8(%r3)
 183              		.loc 1 2153 0
 184 000e 0457     		se_add %r7,%r5
 185 0010 D373     		se_stw %r7,12(%r3)
 186              		.loc 1 2154 0
 187 0012 0D67     		se_cmpl %r7,%r6
 188 0014 7A100008 		e_blt %cr0,.L16
 189              		.loc 1 2156 0
 190 0018 C073     		se_lwz %r7,0(%r3)
 191 001a D373     		se_stw %r7,12(%r3)
 192              	.L16:
 193              		.loc 1 2162 0
 194 001c 0143     		se_mr %r3,%r4
 195              	.LVL23:
 196              		.loc 1 2164 0
 197              		.loc 1 2162 0
 198 001e 0174     		se_mr %r4,%r7
 199              	.LVL24:
 200 0020 78000000 		e_b memcpy
 201              	.LVL25:
 202              	.L14:
 203 0024 0004     		se_blr
 204              		.cfi_endproc
 205              	.LFE19:
 206              		.size	prvCopyDataFromQueue, .-prvCopyDataFromQueue
 207              		.section	.text.prvUnlockQueue,"axv",@progbits
 208              		.align 1
 209              		.p2align 4,,15
 210              		.type	prvUnlockQueue, @function
 211              	prvUnlockQueue:
 212              	.LFB20:
 213              		.loc 1 2168 0
 214              		.cfi_startproc
 215              	.LVL26:
 216 0000 182106E8 		e_stwu %r1,-24(%r1)
 217              	.LCFI5:
 218              		.cfi_def_cfa_offset 24
 219 0004 0080     		se_mflr %r0
 220 0006 1B810908 		e_stmw %r28,8(%r1)
 221 000a D701     		se_stw %r0,28(%r1)
 222              		.cfi_offset 65, 4
 223              		.cfi_offset 28, -16
 224              		.cfi_offset 29, -12
 225              		.cfi_offset 30, -8
 226              		.cfi_offset 31, -4
 227              		.loc 1 2168 0
 228 000c 013E     		se_mr %r30,%r3
GAS LISTING C:\Users\marky\AppData\Local\Temp\ccssf6Jk.s 			page 5


 229              		.loc 1 2175 0
 230 000e 78000001 		e_bl vTaskEnterCritical
 231              	.LVL27:
 232              	.LBB26:
 233              		.loc 1 2177 0
 234 0012 33FE0045 		e_lbz %r31,69(%r30)
 235              	.LVL28:
 236              		.loc 1 2180 0
 237 0016 7FFF0775 		extsb. %r31,%r31
 238 001a 7A01004E 		e_ble %cr0,.L21
 239              		.loc 1 2228 0
 240 001e C97E     		se_lwz %r7,36(%r30)
 241 0020 2A07     		se_cmpi %r7,0
 242 0022 7A120046 		e_beq %cr0,.L21
 243 0026 1B9E8024 		e_addi %r28,%r30,36
 244 002a 2C0D     		se_bmaski %r29,0
 245 002c 7800001C 		e_b .L22
 246              	.L23:
 247 0030 7CFFEA14 		add %r7,%r31,%r29
 248 0034 00C7     		se_extzb %r7
 249 0036 74FF063F 		e_rlwinm %r31,%r7,0,0xff
 250              	.LVL29:
 251              		.loc 1 2180 0
 252 003a 2A07     		se_cmpi %r7,0
 253 003c 7A12002C 		e_beq %cr0,.L21
 254              	.LVL30:
 255              	.L24:
 256              		.loc 1 2228 0
 257 0040 C97E     		se_lwz %r7,36(%r30)
 258 0042 2A07     		se_cmpi %r7,0
 259 0044 7A120024 		e_beq %cr0,.L21
 260              	.L22:
 261              	.LVL31:
 262              		.loc 1 2230 0
 263 0048 01C3     		se_mr %r3,%r28
 264 004a 78000001 		e_bl xTaskRemoveFromEventList
 265              	.LVL32:
 266 004e 2A03     		se_cmpi %r3,0
 267 0050 7A12FFE0 		e_beq %cr0,.L23
 268              		.loc 1 2234 0
 269 0054 78000001 		e_bl vTaskMissedYield
 270              	.LVL33:
 271 0058 7CFFEA14 		add %r7,%r31,%r29
 272 005c 00C7     		se_extzb %r7
 273 005e 74FF063F 		e_rlwinm %r31,%r7,0,0xff
 274              	.LVL34:
 275              		.loc 1 2180 0
 276 0062 2A07     		se_cmpi %r7,0
 277 0064 7A02FFDC 		e_bne %cr0,.L24
 278              	.LVL35:
 279              	.L21:
 280              		.loc 1 2251 0
 281 0068 2C07     		se_bmaski %r7,0
 282 006a 34FE0045 		e_stb %r7,69(%r30)
 283              	.LBE26:
 284              		.loc 1 2253 0
 285 006e 78000001 		e_bl vTaskExitCritical
GAS LISTING C:\Users\marky\AppData\Local\Temp\ccssf6Jk.s 			page 6


 286              	.LVL36:
 287              		.loc 1 2256 0
 288 0072 78000001 		e_bl vTaskEnterCritical
 289              	.LVL37:
 290              	.LBB27:
 291              		.loc 1 2258 0
 292 0076 33FE0044 		e_lbz %r31,68(%r30)
 293              	.LVL38:
 294              		.loc 1 2260 0
 295 007a 7FFF0775 		extsb. %r31,%r31
 296 007e 7A01004E 		e_ble %cr0,.L20
 297              		.loc 1 2262 0
 298 0082 C47E     		se_lwz %r7,16(%r30)
 299 0084 2A07     		se_cmpi %r7,0
 300 0086 7A120046 		e_beq %cr0,.L20
 301 008a 1B9E8010 		e_addi %r28,%r30,16
 302 008e 2C0D     		se_bmaski %r29,0
 303 0090 7800001C 		e_b .L25
 304              	.L26:
 305 0094 7CFFEA14 		add %r7,%r31,%r29
 306 0098 00C7     		se_extzb %r7
 307 009a 74FF063F 		e_rlwinm %r31,%r7,0,0xff
 308              	.LVL39:
 309              		.loc 1 2260 0
 310 009e 2A07     		se_cmpi %r7,0
 311 00a0 7A12002C 		e_beq %cr0,.L20
 312              	.LVL40:
 313              	.L27:
 314              		.loc 1 2262 0
 315 00a4 C47E     		se_lwz %r7,16(%r30)
 316 00a6 2A07     		se_cmpi %r7,0
 317 00a8 7A120024 		e_beq %cr0,.L20
 318              	.L25:
 319              	.LVL41:
 320              		.loc 1 2264 0
 321 00ac 01C3     		se_mr %r3,%r28
 322 00ae 78000001 		e_bl xTaskRemoveFromEventList
 323              	.LVL42:
 324 00b2 2A03     		se_cmpi %r3,0
 325 00b4 7A12FFE0 		e_beq %cr0,.L26
 326              		.loc 1 2266 0
 327 00b8 78000001 		e_bl vTaskMissedYield
 328              	.LVL43:
 329 00bc 7CFFEA14 		add %r7,%r31,%r29
 330 00c0 00C7     		se_extzb %r7
 331 00c2 74FF063F 		e_rlwinm %r31,%r7,0,0xff
 332              	.LVL44:
 333              		.loc 1 2260 0
 334 00c6 2A07     		se_cmpi %r7,0
 335 00c8 7A02FFDC 		e_bne %cr0,.L27
 336              	.LVL45:
 337              	.L20:
 338              		.loc 1 2281 0
 339 00cc 2C07     		se_bmaski %r7,0
 340 00ce 34FE0044 		e_stb %r7,68(%r30)
 341              	.LBE27:
 342              		.loc 1 2284 0
GAS LISTING C:\Users\marky\AppData\Local\Temp\ccssf6Jk.s 			page 7


 343 00d2 C701     		se_lwz %r0,28(%r1)
 344 00d4 1B810808 		e_lmw %r28,8(%r1)
 345              	.LVL46:
 346 00d8 0090     		se_mtlr %r0
 347              		.cfi_restore 65
 348 00da 2171     		se_addi %r1,24
 349              	.LCFI6:
 350              		.cfi_restore 31
 351              		.cfi_restore 30
 352              		.cfi_restore 29
 353              		.cfi_restore 28
 354              		.cfi_def_cfa_offset 0
 355              		.loc 1 2283 0
 356 00dc 78000000 		e_b vTaskExitCritical
 357              	.LVL47:
 358              		.cfi_endproc
 359              	.LFE20:
 360              		.size	prvUnlockQueue, .-prvUnlockQueue
 361              		.section	.text.xQueueGenericReset,"axv",@progbits
 362              		.align 1
 363              		.p2align 4,,15
 364              		.globl xQueueGenericReset
 365              		.type	xQueueGenericReset, @function
 366              	xQueueGenericReset:
 367              	.LFB0:
 368              		.loc 1 256 0
 369              		.cfi_startproc
 370              	.LVL48:
 371 0000 182106F0 		e_stwu %r1,-16(%r1)
 372              	.LCFI7:
 373              		.cfi_def_cfa_offset 16
 374 0004 0080     		se_mflr %r0
 375 0006 1BC10908 		e_stmw %r30,8(%r1)
 376 000a D501     		se_stw %r0,20(%r1)
 377              		.cfi_offset 65, 4
 378              		.cfi_offset 30, -8
 379              		.cfi_offset 31, -4
 380              		.loc 1 256 0
 381 000c 013F     		se_mr %r31,%r3
 382              	.LVL49:
 383 000e 014E     		se_mr %r30,%r4
 384              		.loc 1 261 0
 385 0010 78000001 		e_bl vTaskEnterCritical
 386              	.LVL50:
 387              		.loc 1 263 0
 388 0014 C06F     		se_lwz %r6,0(%r31)
 389 0016 509F0040 		e_lwz %r4,64(%r31)
 390              		.loc 1 267 0
 391 001a 2C05     		se_bmaski %r5,0
 392              		.loc 1 264 0
 393 001c 4803     		se_li %r3,0
 394              		.loc 1 263 0
 395 001e CF7F     		se_lwz %r7,60(%r31)
 396              		.loc 1 264 0
 397 0020 DE3F     		se_stw %r3,56(%r31)
 398              		.loc 1 263 0
 399 0022 0547     		se_mullw %r7,%r4
GAS LISTING C:\Users\marky\AppData\Local\Temp\ccssf6Jk.s 			page 8


 400              		.loc 1 267 0
 401 0024 34BF0044 		e_stb %r5,68(%r31)
 402              		.loc 1 263 0
 403 0028 7C663A14 		add %r3,%r6,%r7
 404              		.loc 1 265 0
 405 002c D16F     		se_stw %r6,4(%r31)
 406              		.loc 1 266 0
 407 002e 0647     		se_sub %r7, %r4
 408              		.loc 1 263 0
 409 0030 D23F     		se_stw %r3,8(%r31)
 410              		.loc 1 266 0
 411 0032 7CE63A14 		add %r7,%r6,%r7
 412              		.loc 1 268 0
 413 0036 34BF0045 		e_stb %r5,69(%r31)
 414              		.loc 1 266 0
 415 003a D37F     		se_stw %r7,12(%r31)
 416              		.loc 1 270 0
 417 003c 2A0E     		se_cmpi %r30,0
 418 003e 7A020040 		e_bne %cr0,.L29
 419              		.loc 1 277 0
 420 0042 C47F     		se_lwz %r7,16(%r31)
 421 0044 2A07     		se_cmpi %r7,0
 422 0046 7A020016 		e_bne %cr0,.L33
 423              	.L31:
 424              		.loc 1 300 0
 425 004a 78000001 		e_bl vTaskExitCritical
 426              	.LVL51:
 427              		.loc 1 305 0
 428 004e C501     		se_lwz %r0,20(%r1)
 429 0050 0090     		se_mtlr %r0
 430              		.cfi_remember_state
 431              		.cfi_restore 65
 432 0052 1BC10808 		e_lmw %r30,8(%r1)
 433              	.LVL52:
 434 0056 4813     		se_li %r3,1
 435 0058 20F1     		se_addi %r1,16
 436              	.LCFI8:
 437              		.cfi_restore 31
 438              		.cfi_restore 30
 439              		.cfi_def_cfa_offset 0
 440 005a 0004     		se_blr
 441              	.LVL53:
 442              	.L33:
 443              	.LCFI9:
 444              		.cfi_restore_state
 445              		.loc 1 279 0
 446 005c 187F8010 		e_addi %r3,%r31,16
 447 0060 78000001 		e_bl xTaskRemoveFromEventList
 448              	.LVL54:
 449 0064 2A03     		se_cmpi %r3,0
 450 0066 7A12FFE4 		e_beq %cr0,.L31
 451              		.loc 1 281 0
 452              	 # 281 "./components/spc5_freertos_component_rla/lib/src/queue.c" 1
 453 006a 0002     		se_sc
 454              	 # 0 "" 2
 455              		.loc 1 300 0
 456 006c 78000001 		e_bl vTaskExitCritical
GAS LISTING C:\Users\marky\AppData\Local\Temp\ccssf6Jk.s 			page 9


 457              	.LVL55:
 458              		.loc 1 305 0
 459 0070 C501     		se_lwz %r0,20(%r1)
 460 0072 0090     		se_mtlr %r0
 461              		.cfi_remember_state
 462              		.cfi_restore 65
 463 0074 1BC10808 		e_lmw %r30,8(%r1)
 464              	.LVL56:
 465 0078 4813     		se_li %r3,1
 466 007a 20F1     		se_addi %r1,16
 467              	.LCFI10:
 468              		.cfi_restore 30
 469              		.cfi_restore 31
 470              		.cfi_def_cfa_offset 0
 471 007c 0004     		se_blr
 472              	.LVL57:
 473              	.L29:
 474              	.LCFI11:
 475              		.cfi_restore_state
 476              		.loc 1 296 0
 477 007e 187F8010 		e_addi %r3,%r31,16
 478 0082 78000001 		e_bl vListInitialise
 479              	.LVL58:
 480              		.loc 1 297 0
 481 0086 187F8024 		e_addi %r3,%r31,36
 482 008a 78000001 		e_bl vListInitialise
 483              	.LVL59:
 484              		.loc 1 300 0
 485 008e 78000001 		e_bl vTaskExitCritical
 486              	.LVL60:
 487              		.loc 1 305 0
 488 0092 C501     		se_lwz %r0,20(%r1)
 489 0094 0090     		se_mtlr %r0
 490              		.cfi_restore 65
 491 0096 1BC10808 		e_lmw %r30,8(%r1)
 492              	.LVL61:
 493 009a 4813     		se_li %r3,1
 494 009c 20F1     		se_addi %r1,16
 495              	.LCFI12:
 496              		.cfi_restore 30
 497              		.cfi_restore 31
 498              		.cfi_def_cfa_offset 0
 499 009e 0004     		se_blr
 500              		.cfi_endproc
 501              	.LFE0:
 502              		.size	xQueueGenericReset, .-xQueueGenericReset
 503              		.section	.text.xQueueGenericCreate,"axv",@progbits
 504              		.align 1
 505              		.p2align 4,,15
 506              		.globl xQueueGenericCreate
 507              		.type	xQueueGenericCreate, @function
 508              	xQueueGenericCreate:
 509              	.LFB1:
 510              		.loc 1 369 0
 511              		.cfi_startproc
 512              	.LVL62:
 513 0000 182106E8 		e_stwu %r1,-24(%r1)
GAS LISTING C:\Users\marky\AppData\Local\Temp\ccssf6Jk.s 			page 10


 514              	.LCFI13:
 515              		.cfi_def_cfa_offset 24
 516 0004 0080     		se_mflr %r0
 517 0006 1B810908 		e_stmw %r28,8(%r1)
 518 000a D701     		se_stw %r0,28(%r1)
 519              		.cfi_offset 65, 4
 520              		.cfi_offset 28, -16
 521              		.cfi_offset 29, -12
 522              		.cfi_offset 30, -8
 523              		.cfi_offset 31, -4
 524              		.loc 1 376 0
 525 000c 014D     		se_mr %r29,%r4
 526              		.loc 1 369 0
 527 000e 013E     		se_mr %r30,%r3
 528              		.loc 1 376 0
 529 0010 2A0D     		se_cmpi %r29,0
 530 0012 7A120022 		e_beq %cr0,.L35
 531              	.LVL63:
 532              		.loc 1 397 0
 533 0016 4C8C     		se_li %r28,72
 534              		.loc 1 385 0
 535 0018 7C7D19D6 		mullw %r3,%r29,%r3
 536              	.LVL64:
 537              		.loc 1 397 0
 538 001c 04C3     		se_add %r3,%r28
 539              	.LVL65:
 540 001e 78000001 		e_bl pvPortMalloc
 541              	.LVL66:
 542              		.loc 1 399 0
 543 0022 013F     		se_mr %r31,%r3
 544 0024 2A0F     		se_cmpi %r31,0
 545 0026 7A12002C 		e_beq %cr0,.L40
 546              	.LVL67:
 547              		.loc 1 404 0
 548 002a 7F9FE214 		add %r28,%r31,%r28
 549              	.LVL68:
 550              	.LBB28:
 551              	.LBB29:
 552              		.loc 1 446 0
 553 002e D0CF     		se_stw %r28,0(%r31)
 554 0030 78000014 		e_b .L38
 555              	.LVL69:
 556              	.L35:
 557              	.LBE29:
 558              	.LBE28:
 559              		.loc 1 397 0
 560 0034 4C83     		se_li %r3,72
 561              	.LVL70:
 562 0036 78000001 		e_bl pvPortMalloc
 563              	.LVL71:
 564              		.loc 1 399 0
 565 003a 013F     		se_mr %r31,%r3
 566 003c 2A0F     		se_cmpi %r31,0
 567 003e 7A120014 		e_beq %cr0,.L40
 568              	.LVL72:
 569              	.LBB31:
 570              	.LBB30:
GAS LISTING C:\Users\marky\AppData\Local\Temp\ccssf6Jk.s 			page 11


 571              		.loc 1 441 0
 572 0042 D0FF     		se_stw %r31,0(%r31)
 573              	.LVL73:
 574              	.L38:
 575              		.loc 1 451 0
 576 0044 DFEF     		se_stw %r30,60(%r31)
 577              		.loc 1 452 0
 578 0046 57BF0040 		e_stw %r29,64(%r31)
 579              		.loc 1 453 0
 580 004a 01F3     		se_mr %r3,%r31
 581              	.LVL74:
 582 004c 4814     		se_li %r4,1
 583 004e 78000001 		e_bl xQueueGenericReset
 584              	.LVL75:
 585              	.L40:
 586              	.LBE30:
 587              	.LBE31:
 588              		.loc 1 424 0
 589 0052 C701     		se_lwz %r0,28(%r1)
 590 0054 0090     		se_mtlr %r0
 591              		.cfi_restore 65
 592 0056 01F3     		se_mr %r3,%r31
 593 0058 1B810808 		e_lmw %r28,8(%r1)
 594              	.LVL76:
 595 005c 2171     		se_addi %r1,24
 596              	.LCFI14:
 597              		.cfi_restore 31
 598              		.cfi_restore 30
 599              		.cfi_restore 29
 600              		.cfi_restore 28
 601              		.cfi_def_cfa_offset 0
 602 005e 0004     		se_blr
 603              		.cfi_endproc
 604              	.LFE1:
 605              		.size	xQueueGenericCreate, .-xQueueGenericCreate
 606              		.section	.text.xQueueGenericSend,"axv",@progbits
 607              		.align 1
 608              		.p2align 4,,15
 609              		.globl xQueueGenericSend
 610              		.type	xQueueGenericSend, @function
 611              	xQueueGenericSend:
 612              	.LFB5:
 613              		.loc 1 748 0
 614              		.cfi_startproc
 615              	.LVL77:
 616 0000 182106B8 		e_stwu %r1,-72(%r1)
 617              	.LCFI15:
 618              		.cfi_def_cfa_offset 72
 619 0004 7D800026 		mfcr %r12
 620 0008 1B010928 		e_stmw %r24,40(%r1)
 621 000c 0080     		se_mflr %r0
 622              		.cfi_offset 24, -32
 623              		.cfi_offset 25, -28
 624              		.cfi_offset 26, -24
 625              		.cfi_offset 27, -20
 626              		.cfi_offset 28, -16
 627              		.cfi_offset 29, -12
GAS LISTING C:\Users\marky\AppData\Local\Temp\ccssf6Jk.s 			page 12


 628              		.cfi_offset 30, -8
 629              		.cfi_offset 31, -4
 630              		.cfi_register 65, 0
 631 000e 013F     		se_mr %r31,%r3
 632              	.LVL78:
 633 0010 55810024 		e_stw %r12,36(%r1)
 634 0014 0169     		se_mr %r25,%r6
 635              		.loc 1 774 0
 636 0016 1866A802 		e_cmpi %cr3,%r6,2
 637              		.loc 1 748 0
 638 001a 5401004C 		e_stw %r0,76(%r1)
 639              		.cfi_offset 70, -36
 640              		.cfi_offset 65, 4
 641              		.loc 1 748 0
 642 001e 0148     		se_mr %r24,%r4
 643 0020 D651     		se_stw %r5,24(%r1)
 644              		.loc 1 918 0
 645 0022 1B438010 		e_addi %r26,%r3,16
 646              		.loc 1 749 0
 647 0026 480E     		se_li %r30,0
 648              		.loc 1 768 0
 649 0028 78000001 		e_bl vTaskEnterCritical
 650              	.LVL79:
 651              		.loc 1 910 0
 652 002c 2C0D     		se_bmaski %r29,0
 653              		.loc 1 774 0
 654 002e CE7F     		se_lwz %r7,56(%r31)
 655 0030 CF6F     		se_lwz %r6,60(%r31)
 656              		.loc 1 910 0
 657 0032 480B     		se_li %r27,0
 658 0034 481C     		se_li %r28,1
 659              	.LVL80:
 660              		.loc 1 774 0
 661 0036 0D67     		se_cmpl %r7,%r6
 662 0038 7A10007C 		e_blt %cr0,.L43
 663              	.L68:
 664              		.loc 1 774 0 is_stmt 0 discriminator 1
 665 003c 7A1E0078 		e_beq %cr3,.L43
 666              		.loc 1 879 0 is_stmt 1
 667 0040 C671     		se_lwz %r7,24(%r1)
 668 0042 2A07     		se_cmpi %r7,0
 669 0044 7A12013A 		e_beq %cr0,.L63
 670              		.loc 1 890 0
 671 0048 2A0E     		se_cmpi %r30,0
 672 004a 7A1200A2 		e_beq %cr0,.L64
 673              	.LVL81:
 674              		.loc 1 904 0
 675 004e 78000001 		e_bl vTaskExitCritical
 676              	.LVL82:
 677              		.loc 1 909 0
 678 0052 78000001 		e_bl vTaskSuspendAll
 679              	.LVL83:
 680              		.loc 1 910 0
 681 0056 78000001 		e_bl vTaskEnterCritical
 682              	.LVL84:
 683 005a 30FF0044 		e_lbz %r7,68(%r31)
 684 005e 00D7     		se_extsb %r7
GAS LISTING C:\Users\marky\AppData\Local\Temp\ccssf6Jk.s 			page 13


 685 0060 0CD7     		se_cmp %r7,%r29
 686 0062 7A1200AA 		e_beq %cr0,.L65
 687              	.L52:
 688              		.loc 1 910 0 is_stmt 0 discriminator 3
 689 0066 30FF0045 		e_lbz %r7,69(%r31)
 690 006a 00D7     		se_extsb %r7
 691 006c 0CD7     		se_cmp %r7,%r29
 692 006e 7A1200AE 		e_beq %cr0,.L66
 693              	.L53:
 694              		.loc 1 910 0 discriminator 6
 695 0072 78000001 		e_bl vTaskExitCritical
 696              	.LVL85:
 697              		.loc 1 913 0 is_stmt 1 discriminator 6
 698 0076 18618008 		e_addi %r3,%r1,8
 699 007a 18818018 		e_addi %r4,%r1,24
 700              	.LVL86:
 701 007e 78000001 		e_bl xTaskCheckForTimeOut
 702              	.LVL87:
 703 0082 2A03     		se_cmpi %r3,0
 704 0084 7A0200B2 		e_bne %cr0,.L54
 705              	.L70:
 706              	.LVL88:
 707              	.LBB32:
 708              	.LBB33:
 709              		.loc 1 2331 0
 710 0088 78000001 		e_bl vTaskEnterCritical
 711              	.LVL89:
 712              		.loc 1 2333 0
 713 008c CE7F     		se_lwz %r7,56(%r31)
 714 008e CF6F     		se_lwz %r6,60(%r31)
 715 0090 0C67     		se_cmp %r7,%r6
 716 0092 7A1200C8 		e_beq %cr0,.L67
 717              	.LVL90:
 718              		.loc 1 2342 0
 719 0096 78000001 		e_bl vTaskExitCritical
 720              	.LVL91:
 721              	.LBE33:
 722              	.LBE32:
 723              		.loc 1 940 0
 724 009a 01F3     		se_mr %r3,%r31
 725 009c 78000001 		e_bl prvUnlockQueue
 726              	.LVL92:
 727              		.loc 1 941 0
 728 00a0 78000001 		e_bl xTaskResumeAll
 729              	.LVL93:
 730              	.L57:
 731 00a4 01CE     		se_mr %r30,%r28
 732              	.L71:
 733              	.LVL94:
 734              		.loc 1 768 0
 735 00a6 78000001 		e_bl vTaskEnterCritical
 736              	.LVL95:
 737              		.loc 1 774 0
 738 00aa CE7F     		se_lwz %r7,56(%r31)
 739 00ac CF6F     		se_lwz %r6,60(%r31)
 740 00ae 0D67     		se_cmpl %r7,%r6
 741 00b0 7A00FF8C 		e_bge %cr0,.L68
GAS LISTING C:\Users\marky\AppData\Local\Temp\ccssf6Jk.s 			page 14


 742              	.LVL96:
 743              	.L43:
 744              		.loc 1 840 0
 745 00b4 01F3     		se_mr %r3,%r31
 746 00b6 0184     		se_mr %r4,%r24
 747 00b8 0195     		se_mr %r5,%r25
 748 00ba 78000001 		e_bl prvCopyDataToQueue
 749              	.LVL97:
 750              		.loc 1 844 0
 751 00be C97F     		se_lwz %r7,36(%r31)
 752 00c0 2A07     		se_cmpi %r7,0
 753 00c2 7A0200DA 		e_bne %cr0,.L69
 754              		.loc 1 859 0
 755 00c6 2A03     		se_cmpi %r3,0
 756 00c8 7A120006 		e_beq %cr0,.L47
 757              	.LVL98:
 758              	.L61:
 759              		.loc 1 865 0
 760              	 # 865 "./components/spc5_freertos_component_rla/lib/src/queue.c" 1
 761 00cc 0002     		se_sc
 762              	 # 0 "" 2
 763              	.L47:
 764              		.loc 1 874 0
 765 00ce 78000001 		e_bl vTaskExitCritical
 766              	.LVL99:
 767              		.loc 1 954 0
 768 00d2 5001004C 		e_lwz %r0,76(%r1)
 769 00d6 0090     		se_mtlr %r0
 770              		.cfi_remember_state
 771              		.cfi_restore 65
 772 00d8 51810024 		e_lwz %r12,36(%r1)
 773              		.cfi_register 70, 12
 774 00dc 1B010828 		e_lmw %r24,40(%r1)
 775              	.LVL100:
 776              		.loc 1 875 0
 777 00e0 4813     		se_li %r3,1
 778              		.loc 1 954 0
 779 00e2 7D810120 		mtcrf 16,%r12
 780              		.cfi_restore 70
 781 00e6 18218048 		e_addi %r1,%r1,72
 782              	.LCFI16:
 783              		.cfi_restore 31
 784              		.cfi_restore 30
 785              		.cfi_restore 29
 786              		.cfi_restore 28
 787              		.cfi_restore 27
 788              		.cfi_restore 26
 789              		.cfi_restore 25
 790              		.cfi_restore 24
 791              		.cfi_def_cfa_offset 0
 792              	.LVL101:
 793 00ea 0004     		se_blr
 794              	.LVL102:
 795              	.L64:
 796              	.LCFI17:
 797              		.cfi_restore_state
 798              		.loc 1 894 0
GAS LISTING C:\Users\marky\AppData\Local\Temp\ccssf6Jk.s 			page 15


 799 00ec 18618008 		e_addi %r3,%r1,8
 800 00f0 78000001 		e_bl vTaskInternalSetTimeOutState
 801              	.LVL103:
 802              		.loc 1 904 0
 803 00f4 78000001 		e_bl vTaskExitCritical
 804              	.LVL104:
 805              		.loc 1 909 0
 806 00f8 78000001 		e_bl vTaskSuspendAll
 807              	.LVL105:
 808              		.loc 1 910 0
 809 00fc 78000001 		e_bl vTaskEnterCritical
 810              	.LVL106:
 811 0100 30FF0044 		e_lbz %r7,68(%r31)
 812 0104 00D7     		se_extsb %r7
 813 0106 0CD7     		se_cmp %r7,%r29
 814 0108 7A02FF5E 		e_bne %cr0,.L52
 815              	.L65:
 816              		.loc 1 910 0 is_stmt 0 discriminator 1
 817 010c 377F0044 		e_stb %r27,68(%r31)
 818 0110 30FF0045 		e_lbz %r7,69(%r31)
 819 0114 00D7     		se_extsb %r7
 820 0116 0CD7     		se_cmp %r7,%r29
 821 0118 7A02FF5A 		e_bne %cr0,.L53
 822              	.L66:
 823              		.loc 1 910 0 discriminator 4
 824 011c 377F0045 		e_stb %r27,69(%r31)
 825 0120 78000001 		e_bl vTaskExitCritical
 826              	.LVL107:
 827              		.loc 1 913 0 is_stmt 1 discriminator 4
 828 0124 18618008 		e_addi %r3,%r1,8
 829 0128 18818018 		e_addi %r4,%r1,24
 830              	.LVL108:
 831 012c 78000001 		e_bl xTaskCheckForTimeOut
 832              	.LVL109:
 833 0130 2A03     		se_cmpi %r3,0
 834 0132 7A12FF56 		e_beq %cr0,.L70
 835              	.L54:
 836              		.loc 1 947 0
 837 0136 01F3     		se_mr %r3,%r31
 838 0138 78000001 		e_bl prvUnlockQueue
 839              	.LVL110:
 840              		.loc 1 948 0
 841 013c 78000001 		e_bl xTaskResumeAll
 842              	.LVL111:
 843              		.loc 1 954 0
 844 0140 5001004C 		e_lwz %r0,76(%r1)
 845 0144 0090     		se_mtlr %r0
 846              		.cfi_remember_state
 847              		.cfi_restore 65
 848 0146 51810024 		e_lwz %r12,36(%r1)
 849              		.cfi_register 70, 12
 850 014a 1B010828 		e_lmw %r24,40(%r1)
 851              	.LVL112:
 852              		.loc 1 951 0
 853 014e 4803     		se_li %r3,0
 854              		.loc 1 954 0
 855 0150 7D810120 		mtcrf 16,%r12
GAS LISTING C:\Users\marky\AppData\Local\Temp\ccssf6Jk.s 			page 16


 856              		.cfi_restore 70
 857 0154 18218048 		e_addi %r1,%r1,72
 858              	.LCFI18:
 859              		.cfi_restore 24
 860              		.cfi_restore 25
 861              		.cfi_restore 26
 862              		.cfi_restore 27
 863              		.cfi_restore 28
 864              		.cfi_restore 29
 865              		.cfi_restore 30
 866              		.cfi_restore 31
 867              		.cfi_def_cfa_offset 0
 868              	.LVL113:
 869 0158 0004     		se_blr
 870              	.LVL114:
 871              	.L67:
 872              	.LCFI19:
 873              		.cfi_restore_state
 874              	.LBB35:
 875              	.LBB34:
 876              		.loc 1 2342 0
 877 015a 78000001 		e_bl vTaskExitCritical
 878              	.LVL115:
 879              	.LBE34:
 880              	.LBE35:
 881              		.loc 1 918 0
 882 015e C641     		se_lwz %r4,24(%r1)
 883 0160 01A3     		se_mr %r3,%r26
 884 0162 78000001 		e_bl vTaskPlaceOnEventList
 885              	.LVL116:
 886              		.loc 1 925 0
 887 0166 01F3     		se_mr %r3,%r31
 888 0168 78000001 		e_bl prvUnlockQueue
 889              	.LVL117:
 890              		.loc 1 932 0
 891 016c 78000001 		e_bl xTaskResumeAll
 892              	.LVL118:
 893 0170 2A03     		se_cmpi %r3,0
 894 0172 7A02FF32 		e_bne %cr0,.L57
 895              		.loc 1 934 0
 896              	 # 934 "./components/spc5_freertos_component_rla/lib/src/queue.c" 1
 897 0176 0002     		se_sc
 898              	 # 0 "" 2
 899 0178 01CE     		se_mr %r30,%r28
 900 017a 79FFFF2C 		e_b .L71
 901              	.LVL119:
 902              	.L63:
 903              		.loc 1 883 0
 904 017e 78000001 		e_bl vTaskExitCritical
 905              	.LVL120:
 906              		.loc 1 954 0
 907 0182 5001004C 		e_lwz %r0,76(%r1)
 908 0186 0090     		se_mtlr %r0
 909              		.cfi_remember_state
 910              		.cfi_restore 65
 911 0188 51810024 		e_lwz %r12,36(%r1)
 912              		.cfi_register 70, 12
GAS LISTING C:\Users\marky\AppData\Local\Temp\ccssf6Jk.s 			page 17


 913 018c 1B010828 		e_lmw %r24,40(%r1)
 914              	.LVL121:
 915              		.loc 1 888 0
 916 0190 4803     		se_li %r3,0
 917              		.loc 1 954 0
 918 0192 7D810120 		mtcrf 16,%r12
 919              		.cfi_restore 70
 920 0196 18218048 		e_addi %r1,%r1,72
 921              	.LCFI20:
 922              		.cfi_restore 24
 923              		.cfi_restore 25
 924              		.cfi_restore 26
 925              		.cfi_restore 27
 926              		.cfi_restore 28
 927              		.cfi_restore 29
 928              		.cfi_restore 30
 929              		.cfi_restore 31
 930              		.cfi_def_cfa_offset 0
 931              	.LVL122:
 932 019a 0004     		se_blr
 933              	.LVL123:
 934              	.L69:
 935              	.LCFI21:
 936              		.cfi_restore_state
 937              		.loc 1 846 0
 938 019c 187F8024 		e_addi %r3,%r31,36
 939              	.LVL124:
 940 01a0 78000001 		e_bl xTaskRemoveFromEventList
 941              	.LVL125:
 942 01a4 2A03     		se_cmpi %r3,0
 943 01a6 7A02FF26 		e_bne %cr0,.L61
 944 01aa 79FFFF24 		e_b .L47
 945              		.cfi_endproc
 946              	.LFE5:
 947              		.size	xQueueGenericSend, .-xQueueGenericSend
 948              		.section	.text.xQueueCreateMutex,"axv",@progbits
 949              		.align 1
 950              		.p2align 4,,15
 951              		.globl xQueueCreateMutex
 952              		.type	xQueueCreateMutex, @function
 953              	xQueueCreateMutex:
 954              	.LFB4:
 955              		.loc 1 504 0
 956              		.cfi_startproc
 957              	.LVL126:
 958 0000 182106F0 		e_stwu %r1,-16(%r1)
 959              	.LCFI22:
 960              		.cfi_def_cfa_offset 16
 961 0004 0080     		se_mflr %r0
 962 0006 D3F1     		se_stw %r31,12(%r1)
 963 0008 0135     		se_mr %r5,%r3
 964 000a D501     		se_stw %r0,20(%r1)
 965              		.cfi_offset 65, 4
 966              		.cfi_offset 31, -4
 967              		.loc 1 508 0
 968 000c 4804     		se_li %r4,0
 969 000e 4813     		se_li %r3,1
GAS LISTING C:\Users\marky\AppData\Local\Temp\ccssf6Jk.s 			page 18


 970              	.LVL127:
 971 0010 78000001 		e_bl xQueueGenericCreate
 972              	.LVL128:
 973              	.LBB38:
 974              	.LBB39:
 975              		.loc 1 475 0
 976 0014 013F     		se_mr %r31,%r3
 977 0016 2A0F     		se_cmpi %r31,0
 978 0018 7A120016 		e_beq %cr0,.L73
 979              		.loc 1 481 0
 980 001c 4807     		se_li %r7,0
 981              		.loc 1 490 0
 982 001e 4804     		se_li %r4,0
 983              		.loc 1 481 0
 984 0020 D27F     		se_stw %r7,8(%r31)
 985              		.loc 1 482 0
 986 0022 D07F     		se_stw %r7,0(%r31)
 987              		.loc 1 485 0
 988 0024 D37F     		se_stw %r7,12(%r31)
 989              		.loc 1 490 0
 990 0026 4805     		se_li %r5,0
 991 0028 4806     		se_li %r6,0
 992 002a 78000001 		e_bl xQueueGenericSend
 993              	.LVL129:
 994              	.L73:
 995              	.LBE39:
 996              	.LBE38:
 997              		.loc 1 512 0
 998 002e C501     		se_lwz %r0,20(%r1)
 999 0030 0090     		se_mtlr %r0
 1000              		.cfi_restore 65
 1001 0032 01F3     		se_mr %r3,%r31
 1002 0034 C3F1     		se_lwz %r31,12(%r1)
 1003              	.LVL130:
 1004 0036 20F1     		se_addi %r1,16
 1005              	.LCFI23:
 1006              		.cfi_restore 31
 1007              		.cfi_def_cfa_offset 0
 1008 0038 0004     		se_blr
 1009              		.cfi_endproc
 1010              	.LFE4:
 1011              		.size	xQueueCreateMutex, .-xQueueCreateMutex
 1012              		.section	.text.xQueueGenericSendFromISR,"axv",@progbits
 1013              		.align 1
 1014              		.p2align 4,,15
 1015              		.globl xQueueGenericSendFromISR
 1016              		.type	xQueueGenericSendFromISR, @function
 1017              	xQueueGenericSendFromISR:
 1018              	.LFB6:
 1019              		.loc 1 958 0
 1020              		.cfi_startproc
 1021              	.LVL131:
 1022 0000 182106E8 		e_stwu %r1,-24(%r1)
 1023              	.LCFI24:
 1024              		.cfi_def_cfa_offset 24
 1025 0004 0080     		se_mflr %r0
 1026 0006 1B810908 		e_stmw %r28,8(%r1)
GAS LISTING C:\Users\marky\AppData\Local\Temp\ccssf6Jk.s 			page 19


 1027 000a D701     		se_stw %r0,28(%r1)
 1028              		.cfi_offset 65, 4
 1029              		.cfi_offset 28, -16
 1030              		.cfi_offset 29, -12
 1031              		.cfi_offset 30, -8
 1032              		.cfi_offset 31, -4
 1033              		.loc 1 990 0
 1034 000c CE73     		se_lwz %r7,56(%r3)
 1035 000e CF03     		se_lwz %r0,60(%r3)
 1036 0010 0D07     		se_cmpl %r7,%r0
 1037 0012 7A10001A 		e_blt %cr0,.L75
 1038              		.loc 1 1099 0 discriminator 1
 1039 0016 4807     		se_li %r7,0
 1040              		.loc 1 990 0 discriminator 1
 1041 0018 2A26     		se_cmpi %r6,2
 1042 001a 7A120012 		e_beq %cr0,.L75
 1043              	.LVL132:
 1044              	.L76:
 1045              		.loc 1 1105 0
 1046 001e C701     		se_lwz %r0,28(%r1)
 1047 0020 0090     		se_mtlr %r0
 1048              		.cfi_remember_state
 1049              		.cfi_restore 65
 1050 0022 1B810808 		e_lmw %r28,8(%r1)
 1051 0026 0173     		se_mr %r3,%r7
 1052 0028 2171     		se_addi %r1,24
 1053              	.LCFI25:
 1054              		.cfi_restore 31
 1055              		.cfi_restore 30
 1056              		.cfi_restore 29
 1057              		.cfi_restore 28
 1058              		.cfi_def_cfa_offset 0
 1059 002a 0004     		se_blr
 1060              	.LVL133:
 1061              	.L75:
 1062              	.LCFI26:
 1063              		.cfi_restore_state
 1064              	.LBB40:
 1065              		.loc 1 992 0
 1066 002c 33C30045 		e_lbz %r30,69(%r3)
 1067 0030 015C     		se_mr %r28,%r5
 1068 0032 013F     		se_mr %r31,%r3
 1069 0034 7FDD0774 		extsb %r29,%r30
 1070              	.LVL134:
 1071              		.loc 1 1001 0
 1072 0038 0165     		se_mr %r5,%r6
 1073              	.LVL135:
 1074 003a 78000001 		e_bl prvCopyDataToQueue
 1075              	.LVL136:
 1076              		.loc 1 1005 0
 1077 003e 73FD9FFF 		e_cmp16i %r29,-1
 1078 0042 7A12001C 		e_beq %cr0,.L81
 1079              		.loc 1 1091 0
 1080 0046 200E     		se_addi %r30,1
 1081              	.LVL137:
 1082 0048 00DE     		se_extsb %r30
 1083 004a 37DF0045 		e_stb %r30,69(%r31)
GAS LISTING C:\Users\marky\AppData\Local\Temp\ccssf6Jk.s 			page 20


 1084              	.LBE40:
 1085              		.loc 1 1105 0
 1086 004e C701     		se_lwz %r0,28(%r1)
 1087 0050 0090     		se_mtlr %r0
 1088              		.cfi_remember_state
 1089              		.cfi_restore 65
 1090 0052 1B810808 		e_lmw %r28,8(%r1)
 1091              	.LVL138:
 1092              	.LBB41:
 1093              		.loc 1 1094 0
 1094 0056 4817     		se_li %r7,1
 1095              	.LVL139:
 1096              	.LBE41:
 1097              		.loc 1 1105 0
 1098 0058 0173     		se_mr %r3,%r7
 1099 005a 2171     		se_addi %r1,24
 1100              	.LCFI27:
 1101              		.cfi_restore 28
 1102              		.cfi_restore 29
 1103              		.cfi_restore 30
 1104              		.cfi_restore 31
 1105              		.cfi_def_cfa_offset 0
 1106 005c 0004     		se_blr
 1107              	.LVL140:
 1108              	.L81:
 1109              	.LCFI28:
 1110              		.cfi_restore_state
 1111              	.LBB42:
 1112              		.loc 1 1060 0
 1113 005e C97F     		se_lwz %r7,36(%r31)
 1114 0060 2A07     		se_cmpi %r7,0
 1115 0062 7A020014 		e_bne %cr0,.L78
 1116              	.L79:
 1117              	.LBE42:
 1118              		.loc 1 1105 0
 1119 0066 C701     		se_lwz %r0,28(%r1)
 1120 0068 0090     		se_mtlr %r0
 1121              		.cfi_remember_state
 1122              		.cfi_restore 65
 1123 006a 1B810808 		e_lmw %r28,8(%r1)
 1124              	.LVL141:
 1125              	.LBB43:
 1126              		.loc 1 1094 0
 1127 006e 4817     		se_li %r7,1
 1128              	.LVL142:
 1129              	.LBE43:
 1130              		.loc 1 1105 0
 1131 0070 0173     		se_mr %r3,%r7
 1132 0072 2171     		se_addi %r1,24
 1133              	.LCFI29:
 1134              		.cfi_restore 28
 1135              		.cfi_restore 29
 1136              		.cfi_restore 30
 1137              		.cfi_restore 31
 1138              		.cfi_def_cfa_offset 0
 1139 0074 0004     		se_blr
 1140              	.LVL143:
GAS LISTING C:\Users\marky\AppData\Local\Temp\ccssf6Jk.s 			page 21


 1141              	.L78:
 1142              	.LCFI30:
 1143              		.cfi_restore_state
 1144              	.LBB44:
 1145              		.loc 1 1062 0
 1146 0076 187F8024 		e_addi %r3,%r31,36
 1147 007a 78000001 		e_bl xTaskRemoveFromEventList
 1148              	.LVL144:
 1149 007e 2A03     		se_cmpi %r3,0
 1150 0080 7A12FFE6 		e_beq %cr0,.L79
 1151              		.loc 1 1066 0
 1152 0084 2A0C     		se_cmpi %r28,0
 1153 0086 7A12FFE0 		e_beq %cr0,.L79
 1154              		.loc 1 1068 0
 1155 008a 4816     		se_li %r6,1
 1156              		.loc 1 1094 0
 1157 008c 4817     		se_li %r7,1
 1158              		.loc 1 1068 0
 1159 008e D06C     		se_stw %r6,0(%r28)
 1160 0090 79FFFF8E 		e_b .L76
 1161              	.LBE44:
 1162              		.cfi_endproc
 1163              	.LFE6:
 1164              		.size	xQueueGenericSendFromISR, .-xQueueGenericSendFromISR
 1165              		.section	.text.xQueueGiveFromISR,"axv",@progbits
 1166              		.align 1
 1167              		.p2align 4,,15
 1168              		.globl xQueueGiveFromISR
 1169              		.type	xQueueGiveFromISR, @function
 1170              	xQueueGiveFromISR:
 1171              	.LFB7:
 1172              		.loc 1 1109 0
 1173              		.cfi_startproc
 1174              	.LVL145:
 1175 0000 182106F0 		e_stwu %r1,-16(%r1)
 1176              	.LCFI31:
 1177              		.cfi_def_cfa_offset 16
 1178 0004 0080     		se_mflr %r0
 1179 0006 D3F1     		se_stw %r31,12(%r1)
 1180 0008 D501     		se_stw %r0,20(%r1)
 1181              		.cfi_offset 65, 4
 1182              		.cfi_offset 31, -4
 1183              	.LBB45:
 1184              		.loc 1 1264 0
 1185 000a 4805     		se_li %r5,0
 1186              		.loc 1 1149 0
 1187 000c CE63     		se_lwz %r6,56(%r3)
 1188              	.LVL146:
 1189              		.loc 1 1154 0
 1190 000e CF73     		se_lwz %r7,60(%r3)
 1191 0010 0D76     		se_cmpl %r6,%r7
 1192 0012 7A000022 		e_bge %cr0,.L83
 1193              	.LBB46:
 1194              		.loc 1 1156 0
 1195 0016 30E30045 		e_lbz %r7,69(%r3)
 1196              		.loc 1 1166 0
 1197 001a 2006     		se_addi %r6,1
GAS LISTING C:\Users\marky\AppData\Local\Temp\ccssf6Jk.s 			page 22


 1198              	.LVL147:
 1199              		.loc 1 1156 0
 1200 001c 7CE50774 		extsb %r5,%r7
 1201              	.LVL148:
 1202              		.loc 1 1166 0
 1203 0020 DE63     		se_stw %r6,56(%r3)
 1204              		.loc 1 1170 0
 1205 0022 73E59FFF 		e_cmp16i %r5,-1
 1206 0026 7A12001A 		e_beq %cr0,.L88
 1207              		.loc 1 1256 0
 1208 002a 2007     		se_addi %r7,1
 1209              	.LVL149:
 1210              		.loc 1 1259 0
 1211 002c 4815     		se_li %r5,1
 1212              	.LVL150:
 1213              		.loc 1 1256 0
 1214 002e 00D7     		se_extsb %r7
 1215 0030 34E30045 		e_stb %r7,69(%r3)
 1216              	.LVL151:
 1217              	.L83:
 1218              	.LBE46:
 1219              	.LBE45:
 1220              		.loc 1 1270 0
 1221 0034 C501     		se_lwz %r0,20(%r1)
 1222 0036 0090     		se_mtlr %r0
 1223              		.cfi_remember_state
 1224              		.cfi_restore 65
 1225 0038 C3F1     		se_lwz %r31,12(%r1)
 1226 003a 0153     		se_mr %r3,%r5
 1227 003c 20F1     		se_addi %r1,16
 1228              	.LCFI32:
 1229              		.cfi_restore 31
 1230              		.cfi_def_cfa_offset 0
 1231 003e 0004     		se_blr
 1232              	.LVL152:
 1233              	.L88:
 1234              	.LCFI33:
 1235              		.cfi_restore_state
 1236              	.LBB50:
 1237              	.LBB47:
 1238              		.loc 1 1225 0
 1239 0040 C973     		se_lwz %r7,36(%r3)
 1240              	.LVL153:
 1241 0042 2A07     		se_cmpi %r7,0
 1242 0044 7A020012 		e_bne %cr0,.L85
 1243              	.LVL154:
 1244              	.L86:
 1245              	.LBE47:
 1246              	.LBE50:
 1247              		.loc 1 1270 0
 1248 0048 C501     		se_lwz %r0,20(%r1)
 1249 004a 0090     		se_mtlr %r0
 1250              		.cfi_remember_state
 1251              		.cfi_restore 65
 1252 004c C3F1     		se_lwz %r31,12(%r1)
 1253              	.LBB51:
 1254              	.LBB48:
GAS LISTING C:\Users\marky\AppData\Local\Temp\ccssf6Jk.s 			page 23


 1255              		.loc 1 1259 0
 1256 004e 4815     		se_li %r5,1
 1257              	.LVL155:
 1258              	.LBE48:
 1259              	.LBE51:
 1260              		.loc 1 1270 0
 1261 0050 0153     		se_mr %r3,%r5
 1262 0052 20F1     		se_addi %r1,16
 1263              	.LCFI34:
 1264              		.cfi_restore 31
 1265              		.cfi_def_cfa_offset 0
 1266 0054 0004     		se_blr
 1267              	.LVL156:
 1268              	.L85:
 1269              	.LCFI35:
 1270              		.cfi_restore_state
 1271 0056 014F     		se_mr %r31,%r4
 1272              	.LBB52:
 1273              	.LBB49:
 1274              		.loc 1 1227 0
 1275 0058 18638024 		e_addi %r3,%r3,36
 1276              	.LVL157:
 1277 005c 78000001 		e_bl xTaskRemoveFromEventList
 1278              	.LVL158:
 1279 0060 2A03     		se_cmpi %r3,0
 1280 0062 7A12FFE6 		e_beq %cr0,.L86
 1281              		.loc 1 1231 0
 1282 0066 2A0F     		se_cmpi %r31,0
 1283 0068 7A12FFE0 		e_beq %cr0,.L86
 1284              		.loc 1 1233 0
 1285 006c 4817     		se_li %r7,1
 1286              		.loc 1 1259 0
 1287 006e 4815     		se_li %r5,1
 1288              		.loc 1 1233 0
 1289 0070 D07F     		se_stw %r7,0(%r31)
 1290 0072 79FFFFC2 		e_b .L83
 1291              	.LBE49:
 1292              	.LBE52:
 1293              		.cfi_endproc
 1294              	.LFE7:
 1295              		.size	xQueueGiveFromISR, .-xQueueGiveFromISR
 1296              		.section	.text.xQueueReceive,"axv",@progbits
 1297              		.align 1
 1298              		.p2align 4,,15
 1299              		.globl xQueueReceive
 1300              		.type	xQueueReceive, @function
 1301              	xQueueReceive:
 1302              	.LFB8:
 1303              		.loc 1 1274 0
 1304              		.cfi_startproc
 1305              	.LVL159:
 1306 0000 182106C0 		e_stwu %r1,-64(%r1)
 1307              	.LCFI36:
 1308              		.cfi_def_cfa_offset 64
 1309 0004 0080     		se_mflr %r0
 1310 0006 1B010920 		e_stmw %r24,32(%r1)
 1311 000a 54010044 		e_stw %r0,68(%r1)
GAS LISTING C:\Users\marky\AppData\Local\Temp\ccssf6Jk.s 			page 24


 1312              		.cfi_offset 65, 4
 1313              		.cfi_offset 24, -32
 1314              		.cfi_offset 25, -28
 1315              		.cfi_offset 26, -24
 1316              		.cfi_offset 27, -20
 1317              		.cfi_offset 28, -16
 1318              		.cfi_offset 29, -12
 1319              		.cfi_offset 30, -8
 1320              		.cfi_offset 31, -4
 1321              		.loc 1 1274 0
 1322 000e 013F     		se_mr %r31,%r3
 1323              	.LVL160:
 1324 0010 0148     		se_mr %r24,%r4
 1325 0012 D651     		se_stw %r5,24(%r1)
 1326              		.loc 1 1374 0
 1327 0014 1B238024 		e_addi %r25,%r3,36
 1328              		.loc 1 1275 0
 1329 0018 480E     		se_li %r30,0
 1330              		.loc 1 1299 0
 1331 001a 78000001 		e_bl vTaskEnterCritical
 1332              	.LVL161:
 1333              		.loc 1 1364 0
 1334 001e 2C0C     		se_bmaski %r28,0
 1335              	.LBB53:
 1336              		.loc 1 1301 0
 1337 0020 CEDF     		se_lwz %r29,56(%r31)
 1338              	.LBE53:
 1339              		.loc 1 1364 0
 1340 0022 480A     		se_li %r26,0
 1341 0024 481B     		se_li %r27,1
 1342              	.LVL162:
 1343              	.LBB54:
 1344              		.loc 1 1305 0
 1345 0026 2A0D     		se_cmpi %r29,0
 1346 0028 7A020084 		e_bne %cr0,.L111
 1347              	.L91:
 1348              		.loc 1 1336 0
 1349 002c C671     		se_lwz %r7,24(%r1)
 1350 002e 2A07     		se_cmpi %r7,0
 1351 0030 7A120114 		e_beq %cr0,.L104
 1352              		.loc 1 1344 0
 1353 0034 2A0E     		se_cmpi %r30,0
 1354 0036 7A1200C2 		e_beq %cr0,.L112
 1355              	.LVL163:
 1356              	.LBE54:
 1357              		.loc 1 1358 0
 1358 003a 78000001 		e_bl vTaskExitCritical
 1359              	.LVL164:
 1360              		.loc 1 1363 0
 1361 003e 78000001 		e_bl vTaskSuspendAll
 1362              	.LVL165:
 1363              		.loc 1 1364 0
 1364 0042 78000001 		e_bl vTaskEnterCritical
 1365              	.LVL166:
 1366 0046 30FF0044 		e_lbz %r7,68(%r31)
 1367 004a 00D7     		se_extsb %r7
 1368 004c 0CC7     		se_cmp %r7,%r28
GAS LISTING C:\Users\marky\AppData\Local\Temp\ccssf6Jk.s 			page 25


 1369 004e 7A1200CA 		e_beq %cr0,.L113
 1370              	.L98:
 1371              		.loc 1 1364 0 is_stmt 0 discriminator 3
 1372 0052 30FF0045 		e_lbz %r7,69(%r31)
 1373 0056 00D7     		se_extsb %r7
 1374 0058 0CC7     		se_cmp %r7,%r28
 1375 005a 7A1200CE 		e_beq %cr0,.L114
 1376              	.L99:
 1377              		.loc 1 1364 0 discriminator 6
 1378 005e 78000001 		e_bl vTaskExitCritical
 1379              	.LVL167:
 1380              		.loc 1 1367 0 is_stmt 1 discriminator 6
 1381 0062 18618008 		e_addi %r3,%r1,8
 1382 0066 18818018 		e_addi %r4,%r1,24
 1383              	.LVL168:
 1384 006a 78000001 		e_bl xTaskCheckForTimeOut
 1385              	.LVL169:
 1386 006e 2A03     		se_cmpi %r3,0
 1387 0070 7A020068 		e_bne %cr0,.L100
 1388              	.LVL170:
 1389              	.LBB55:
 1390              	.LBB56:
 1391              		.loc 1 2291 0
 1392 0074 78000001 		e_bl vTaskEnterCritical
 1393              	.LVL171:
 1394              		.loc 1 2293 0
 1395 0078 CE7F     		se_lwz %r7,56(%r31)
 1396 007a 2A07     		se_cmpi %r7,0
 1397 007c 7A0200B4 		e_bne %cr0,.L115
 1398              	.LVL172:
 1399              		.loc 1 2302 0
 1400 0080 78000001 		e_bl vTaskExitCritical
 1401              	.LVL173:
 1402              	.LBE56:
 1403              	.LBE55:
 1404              		.loc 1 1374 0
 1405 0084 C641     		se_lwz %r4,24(%r1)
 1406 0086 0193     		se_mr %r3,%r25
 1407 0088 78000001 		e_bl vTaskPlaceOnEventList
 1408              	.LVL174:
 1409              		.loc 1 1375 0
 1410 008c 01F3     		se_mr %r3,%r31
 1411 008e 78000001 		e_bl prvUnlockQueue
 1412              	.LVL175:
 1413              		.loc 1 1376 0
 1414 0092 78000001 		e_bl xTaskResumeAll
 1415              	.LVL176:
 1416 0096 2A03     		se_cmpi %r3,0
 1417 0098 7A020006 		e_bne %cr0,.L103
 1418              		.loc 1 1378 0
 1419              	 # 1378 "./components/spc5_freertos_component_rla/lib/src/queue.c" 1
 1420 009c 0002     		se_sc
 1421              	 # 0 "" 2
 1422              	.L103:
 1423 009e 01BE     		se_mr %r30,%r27
 1424              	.LVL177:
 1425              	.L117:
GAS LISTING C:\Users\marky\AppData\Local\Temp\ccssf6Jk.s 			page 26


 1426              		.loc 1 1299 0
 1427 00a0 78000001 		e_bl vTaskEnterCritical
 1428              	.LVL178:
 1429              	.LBB58:
 1430              		.loc 1 1301 0
 1431 00a4 CEDF     		se_lwz %r29,56(%r31)
 1432              	.LVL179:
 1433              		.loc 1 1305 0
 1434 00a6 2A0D     		se_cmpi %r29,0
 1435 00a8 7A12FF84 		e_beq %cr0,.L91
 1436              	.LVL180:
 1437              	.L111:
 1438              		.loc 1 1308 0
 1439 00ac 01F3     		se_mr %r3,%r31
 1440 00ae 0184     		se_mr %r4,%r24
 1441              		.loc 1 1310 0
 1442 00b0 1BBD84FF 		e_addi %r29,%r29,-1
 1443              	.LVL181:
 1444              		.loc 1 1308 0
 1445 00b4 78000001 		e_bl prvCopyDataFromQueue
 1446              	.LVL182:
 1447              		.loc 1 1310 0
 1448 00b8 DEDF     		se_stw %r29,56(%r31)
 1449              		.loc 1 1315 0
 1450 00ba C47F     		se_lwz %r7,16(%r31)
 1451 00bc 2A07     		se_cmpi %r7,0
 1452 00be 7A02009C 		e_bne %cr0,.L116
 1453              	.L93:
 1454              		.loc 1 1331 0
 1455 00c2 78000001 		e_bl vTaskExitCritical
 1456              	.LVL183:
 1457              	.LBE58:
 1458              		.loc 1 1411 0
 1459 00c6 50010044 		e_lwz %r0,68(%r1)
 1460 00ca 0090     		se_mtlr %r0
 1461              		.cfi_remember_state
 1462              		.cfi_restore 65
 1463 00cc 1B010820 		e_lmw %r24,32(%r1)
 1464              	.LVL184:
 1465              	.LBB59:
 1466              		.loc 1 1332 0
 1467 00d0 4813     		se_li %r3,1
 1468              	.LBE59:
 1469              		.loc 1 1411 0
 1470 00d2 18218040 		e_addi %r1,%r1,64
 1471              	.LCFI37:
 1472              		.cfi_restore 24
 1473              		.cfi_restore 25
 1474              		.cfi_restore 26
 1475              		.cfi_restore 27
 1476              		.cfi_restore 28
 1477              		.cfi_restore 29
 1478              		.cfi_restore 30
 1479              		.cfi_restore 31
 1480              		.cfi_def_cfa_offset 0
 1481              	.LVL185:
 1482 00d6 0004     		se_blr
GAS LISTING C:\Users\marky\AppData\Local\Temp\ccssf6Jk.s 			page 27


 1483              	.LVL186:
 1484              	.L100:
 1485              	.LCFI38:
 1486              		.cfi_restore_state
 1487              		.loc 1 1397 0
 1488 00d8 01F3     		se_mr %r3,%r31
 1489 00da 78000001 		e_bl prvUnlockQueue
 1490              	.LVL187:
 1491              		.loc 1 1398 0
 1492 00de 78000001 		e_bl xTaskResumeAll
 1493              	.LVL188:
 1494              	.LBB60:
 1495              	.LBB61:
 1496              		.loc 1 2291 0
 1497 00e2 78000001 		e_bl vTaskEnterCritical
 1498              	.LVL189:
 1499              		.loc 1 2293 0
 1500 00e6 CE7F     		se_lwz %r7,56(%r31)
 1501 00e8 2A07     		se_cmpi %r7,0
 1502 00ea 7A12005A 		e_beq %cr0,.L104
 1503              	.LVL190:
 1504              		.loc 1 2302 0
 1505 00ee 78000001 		e_bl vTaskExitCritical
 1506              	.LVL191:
 1507 00f2 01BE     		se_mr %r30,%r27
 1508 00f4 79FFFFAC 		e_b .L117
 1509              	.LVL192:
 1510              	.L112:
 1511              	.LBE61:
 1512              	.LBE60:
 1513              	.LBB62:
 1514              		.loc 1 1348 0
 1515 00f8 18618008 		e_addi %r3,%r1,8
 1516 00fc 78000001 		e_bl vTaskInternalSetTimeOutState
 1517              	.LVL193:
 1518              	.LBE62:
 1519              		.loc 1 1358 0
 1520 0100 78000001 		e_bl vTaskExitCritical
 1521              	.LVL194:
 1522              		.loc 1 1363 0
 1523 0104 78000001 		e_bl vTaskSuspendAll
 1524              	.LVL195:
 1525              		.loc 1 1364 0
 1526 0108 78000001 		e_bl vTaskEnterCritical
 1527              	.LVL196:
 1528 010c 30FF0044 		e_lbz %r7,68(%r31)
 1529 0110 00D7     		se_extsb %r7
 1530 0112 0CC7     		se_cmp %r7,%r28
 1531 0114 7A02FF3E 		e_bne %cr0,.L98
 1532              	.L113:
 1533              		.loc 1 1364 0 is_stmt 0 discriminator 1
 1534 0118 375F0044 		e_stb %r26,68(%r31)
 1535 011c 30FF0045 		e_lbz %r7,69(%r31)
 1536 0120 00D7     		se_extsb %r7
 1537 0122 0CC7     		se_cmp %r7,%r28
 1538 0124 7A02FF3A 		e_bne %cr0,.L99
 1539              	.L114:
GAS LISTING C:\Users\marky\AppData\Local\Temp\ccssf6Jk.s 			page 28


 1540              		.loc 1 1364 0 discriminator 4
 1541 0128 375F0045 		e_stb %r26,69(%r31)
 1542 012c 79FFFF32 		e_b .L99
 1543              	.LVL197:
 1544              	.L115:
 1545              	.LBB63:
 1546              	.LBB57:
 1547              		.loc 1 2302 0 is_stmt 1
 1548 0130 78000001 		e_bl vTaskExitCritical
 1549              	.LVL198:
 1550 0134 01BE     		se_mr %r30,%r27
 1551              	.LBE57:
 1552              	.LBE63:
 1553              		.loc 1 1389 0
 1554 0136 01F3     		se_mr %r3,%r31
 1555 0138 78000001 		e_bl prvUnlockQueue
 1556              	.LVL199:
 1557              		.loc 1 1390 0
 1558 013c 78000001 		e_bl xTaskResumeAll
 1559              	.LVL200:
 1560 0140 79FFFF60 		e_b .L117
 1561              	.LVL201:
 1562              	.L104:
 1563              	.LBB64:
 1564              		.loc 1 1340 0
 1565 0144 78000001 		e_bl vTaskExitCritical
 1566              	.LVL202:
 1567              	.LBE64:
 1568              		.loc 1 1411 0
 1569 0148 50010044 		e_lwz %r0,68(%r1)
 1570 014c 0090     		se_mtlr %r0
 1571              		.cfi_remember_state
 1572              		.cfi_restore 65
 1573 014e 1B010820 		e_lmw %r24,32(%r1)
 1574              	.LVL203:
 1575              	.LBB65:
 1576              		.loc 1 1342 0
 1577 0152 4803     		se_li %r3,0
 1578              	.LBE65:
 1579              		.loc 1 1411 0
 1580 0154 18218040 		e_addi %r1,%r1,64
 1581              	.LCFI39:
 1582              		.cfi_restore 31
 1583              		.cfi_restore 30
 1584              		.cfi_restore 29
 1585              		.cfi_restore 28
 1586              		.cfi_restore 27
 1587              		.cfi_restore 26
 1588              		.cfi_restore 25
 1589              		.cfi_restore 24
 1590              		.cfi_def_cfa_offset 0
 1591              	.LVL204:
 1592 0158 0004     		se_blr
 1593              	.LVL205:
 1594              	.L116:
 1595              	.LCFI40:
 1596              		.cfi_restore_state
GAS LISTING C:\Users\marky\AppData\Local\Temp\ccssf6Jk.s 			page 29


 1597              	.LBB66:
 1598              		.loc 1 1317 0
 1599 015a 187F8010 		e_addi %r3,%r31,16
 1600 015e 78000001 		e_bl xTaskRemoveFromEventList
 1601              	.LVL206:
 1602 0162 2A03     		se_cmpi %r3,0
 1603 0164 7A12FF5E 		e_beq %cr0,.L93
 1604              		.loc 1 1319 0
 1605              	 # 1319 "./components/spc5_freertos_component_rla/lib/src/queue.c" 1
 1606 0168 0002     		se_sc
 1607              	 # 0 "" 2
 1608 016a 79FFFF58 		e_b .L93
 1609              	.LBE66:
 1610              		.cfi_endproc
 1611              	.LFE8:
 1612              		.size	xQueueReceive, .-xQueueReceive
 1613              		.section	.text.xQueueSemaphoreTake,"axv",@progbits
 1614              		.align 1
 1615              		.p2align 4,,15
 1616              		.globl xQueueSemaphoreTake
 1617              		.type	xQueueSemaphoreTake, @function
 1618              	xQueueSemaphoreTake:
 1619              	.LFB9:
 1620              		.loc 1 1415 0
 1621              		.cfi_startproc
 1622              	.LVL207:
 1623 0000 182106C0 		e_stwu %r1,-64(%r1)
 1624              	.LCFI41:
 1625              		.cfi_def_cfa_offset 64
 1626 0004 0080     		se_mflr %r0
 1627 0006 1B210924 		e_stmw %r25,36(%r1)
 1628 000a 54010044 		e_stw %r0,68(%r1)
 1629              		.cfi_offset 65, 4
 1630              		.cfi_offset 25, -28
 1631              		.cfi_offset 26, -24
 1632              		.cfi_offset 27, -20
 1633              		.cfi_offset 28, -16
 1634              		.cfi_offset 29, -12
 1635              		.cfi_offset 30, -8
 1636              		.cfi_offset 31, -4
 1637              		.loc 1 1415 0
 1638 000e 013F     		se_mr %r31,%r3
 1639              	.LVL208:
 1640 0010 D641     		se_stw %r4,24(%r1)
 1641              		.loc 1 1565 0
 1642 0012 1B438024 		e_addi %r26,%r3,36
 1643              		.loc 1 1421 0
 1644 0016 4809     		se_li %r25,0
 1645              		.loc 1 1444 0
 1646 0018 78000001 		e_bl vTaskEnterCritical
 1647              	.LVL209:
 1648              		.loc 1 1416 0
 1649 001c 480E     		se_li %r30,0
 1650              	.LBB67:
 1651              		.loc 1 1448 0
 1652 001e CE7F     		se_lwz %r7,56(%r31)
 1653              	.LBE67:
GAS LISTING C:\Users\marky\AppData\Local\Temp\ccssf6Jk.s 			page 30


 1654              		.loc 1 1535 0
 1655 0020 2C0D     		se_bmaski %r29,0
 1656 0022 480B     		se_li %r27,0
 1657 0024 481C     		se_li %r28,1
 1658              	.LVL210:
 1659              	.LBB68:
 1660              		.loc 1 1452 0
 1661 0026 2A07     		se_cmpi %r7,0
 1662 0028 7A02008C 		e_bne %cr0,.L149
 1663              	.LVL211:
 1664              	.L120:
 1665              		.loc 1 1498 0
 1666 002c C671     		se_lwz %r7,24(%r1)
 1667              	.LVL212:
 1668 002e 2A07     		se_cmpi %r7,0
 1669 0030 7A120154 		e_beq %cr0,.L144
 1670              		.loc 1 1515 0
 1671 0034 2A0E     		se_cmpi %r30,0
 1672 0036 7A1200CA 		e_beq %cr0,.L150
 1673              	.LVL213:
 1674              	.LBE68:
 1675              		.loc 1 1529 0
 1676 003a 78000001 		e_bl vTaskExitCritical
 1677              	.LVL214:
 1678              		.loc 1 1534 0
 1679 003e 78000001 		e_bl vTaskSuspendAll
 1680              	.LVL215:
 1681              		.loc 1 1535 0
 1682 0042 78000001 		e_bl vTaskEnterCritical
 1683              	.LVL216:
 1684 0046 30FF0044 		e_lbz %r7,68(%r31)
 1685 004a 00D7     		se_extsb %r7
 1686 004c 0CD7     		se_cmp %r7,%r29
 1687 004e 7A1200D2 		e_beq %cr0,.L151
 1688              	.L128:
 1689              		.loc 1 1535 0 is_stmt 0 discriminator 3
 1690 0052 30FF0045 		e_lbz %r7,69(%r31)
 1691 0056 00D7     		se_extsb %r7
 1692 0058 0CD7     		se_cmp %r7,%r29
 1693 005a 7A1200D6 		e_beq %cr0,.L152
 1694              	.L129:
 1695              		.loc 1 1535 0 discriminator 6
 1696 005e 78000001 		e_bl vTaskExitCritical
 1697              	.LVL217:
 1698              		.loc 1 1538 0 is_stmt 1 discriminator 6
 1699 0062 18618008 		e_addi %r3,%r1,8
 1700 0066 18818018 		e_addi %r4,%r1,24
 1701              	.LVL218:
 1702 006a 78000001 		e_bl xTaskCheckForTimeOut
 1703              	.LVL219:
 1704 006e 2A03     		se_cmpi %r3,0
 1705 0070 7A020070 		e_bne %cr0,.L130
 1706              	.LVL220:
 1707              	.LBB69:
 1708              	.LBB70:
 1709              		.loc 1 2291 0
 1710 0074 78000001 		e_bl vTaskEnterCritical
GAS LISTING C:\Users\marky\AppData\Local\Temp\ccssf6Jk.s 			page 31


 1711              	.LVL221:
 1712              		.loc 1 2293 0
 1713 0078 CE7F     		se_lwz %r7,56(%r31)
 1714 007a 2A07     		se_cmpi %r7,0
 1715 007c 7A0200BC 		e_bne %cr0,.L153
 1716              	.LVL222:
 1717              		.loc 1 2302 0
 1718 0080 78000001 		e_bl vTaskExitCritical
 1719              	.LVL223:
 1720              	.LBE70:
 1721              	.LBE69:
 1722              		.loc 1 1550 0
 1723 0084 C07F     		se_lwz %r7,0(%r31)
 1724 0086 2A07     		se_cmpi %r7,0
 1725 0088 7A120104 		e_beq %cr0,.L154
 1726              	.L138:
 1727              		.loc 1 1565 0
 1728 008c C641     		se_lwz %r4,24(%r1)
 1729 008e 01A3     		se_mr %r3,%r26
 1730 0090 78000001 		e_bl vTaskPlaceOnEventList
 1731              	.LVL224:
 1732              		.loc 1 1566 0
 1733 0094 01F3     		se_mr %r3,%r31
 1734 0096 78000001 		e_bl prvUnlockQueue
 1735              	.LVL225:
 1736              		.loc 1 1567 0
 1737 009a 78000001 		e_bl xTaskResumeAll
 1738              	.LVL226:
 1739 009e 2A03     		se_cmpi %r3,0
 1740 00a0 7A020006 		e_bne %cr0,.L133
 1741              		.loc 1 1569 0
 1742              	 # 1569 "./components/spc5_freertos_component_rla/lib/src/queue.c" 1
 1743 00a4 0002     		se_sc
 1744              	 # 0 "" 2
 1745              	.L133:
 1746 00a6 01CE     		se_mr %r30,%r28
 1747              	.LVL227:
 1748              	.L158:
 1749              		.loc 1 1444 0
 1750 00a8 78000001 		e_bl vTaskEnterCritical
 1751              	.LVL228:
 1752              	.LBB72:
 1753              		.loc 1 1448 0
 1754 00ac CE7F     		se_lwz %r7,56(%r31)
 1755              	.LVL229:
 1756              		.loc 1 1452 0
 1757 00ae 2A07     		se_cmpi %r7,0
 1758 00b0 7A12FF7C 		e_beq %cr0,.L120
 1759              	.LVL230:
 1760              	.L149:
 1761              		.loc 1 1458 0
 1762 00b4 18E784FF 		e_addi %r7,%r7,-1
 1763              	.LVL231:
 1764              		.loc 1 1462 0
 1765 00b8 C06F     		se_lwz %r6,0(%r31)
 1766              		.loc 1 1458 0
 1767 00ba DE7F     		se_stw %r7,56(%r31)
GAS LISTING C:\Users\marky\AppData\Local\Temp\ccssf6Jk.s 			page 32


 1768              		.loc 1 1462 0
 1769 00bc 2A06     		se_cmpi %r6,0
 1770 00be 7A1200F6 		e_beq %cr0,.L155
 1771              	.LVL232:
 1772              	.L121:
 1773              		.loc 1 1477 0
 1774 00c2 C47F     		se_lwz %r7,16(%r31)
 1775 00c4 2A07     		se_cmpi %r7,0
 1776 00c6 7A0200DA 		e_bne %cr0,.L156
 1777              	.L123:
 1778              		.loc 1 1493 0
 1779 00ca 78000001 		e_bl vTaskExitCritical
 1780              	.LVL233:
 1781              	.LBE72:
 1782              		.loc 1 1629 0
 1783 00ce 50010044 		e_lwz %r0,68(%r1)
 1784 00d2 0090     		se_mtlr %r0
 1785              		.cfi_remember_state
 1786              		.cfi_restore 65
 1787 00d4 1B210824 		e_lmw %r25,36(%r1)
 1788              	.LVL234:
 1789              	.LBB73:
 1790              		.loc 1 1494 0
 1791 00d8 4813     		se_li %r3,1
 1792              	.LBE73:
 1793              		.loc 1 1629 0
 1794 00da 18218040 		e_addi %r1,%r1,64
 1795              	.LCFI42:
 1796              		.cfi_restore 25
 1797              		.cfi_restore 26
 1798              		.cfi_restore 27
 1799              		.cfi_restore 28
 1800              		.cfi_restore 29
 1801              		.cfi_restore 30
 1802              		.cfi_restore 31
 1803              		.cfi_def_cfa_offset 0
 1804              	.LVL235:
 1805 00de 0004     		se_blr
 1806              	.LVL236:
 1807              	.L130:
 1808              	.LCFI43:
 1809              		.cfi_restore_state
 1810              		.loc 1 1587 0
 1811 00e0 01F3     		se_mr %r3,%r31
 1812 00e2 78000001 		e_bl prvUnlockQueue
 1813              	.LVL237:
 1814              		.loc 1 1588 0
 1815 00e6 78000001 		e_bl xTaskResumeAll
 1816              	.LVL238:
 1817              	.LBB74:
 1818              	.LBB75:
 1819              		.loc 1 2291 0
 1820 00ea 78000001 		e_bl vTaskEnterCritical
 1821              	.LVL239:
 1822              		.loc 1 2293 0
 1823 00ee CE7F     		se_lwz %r7,56(%r31)
 1824 00f0 2A07     		se_cmpi %r7,0
GAS LISTING C:\Users\marky\AppData\Local\Temp\ccssf6Jk.s 			page 33


 1825 00f2 7A12005A 		e_beq %cr0,.L157
 1826              	.LVL240:
 1827              		.loc 1 2302 0
 1828 00f6 78000001 		e_bl vTaskExitCritical
 1829              	.LVL241:
 1830 00fa 01CE     		se_mr %r30,%r28
 1831 00fc 79FFFFAC 		e_b .L158
 1832              	.LVL242:
 1833              	.L150:
 1834              	.LBE75:
 1835              	.LBE74:
 1836              	.LBB77:
 1837              		.loc 1 1519 0
 1838 0100 18618008 		e_addi %r3,%r1,8
 1839 0104 78000001 		e_bl vTaskInternalSetTimeOutState
 1840              	.LVL243:
 1841              	.LBE77:
 1842              		.loc 1 1529 0
 1843 0108 78000001 		e_bl vTaskExitCritical
 1844              	.LVL244:
 1845              		.loc 1 1534 0
 1846 010c 78000001 		e_bl vTaskSuspendAll
 1847              	.LVL245:
 1848              		.loc 1 1535 0
 1849 0110 78000001 		e_bl vTaskEnterCritical
 1850              	.LVL246:
 1851 0114 30FF0044 		e_lbz %r7,68(%r31)
 1852 0118 00D7     		se_extsb %r7
 1853 011a 0CD7     		se_cmp %r7,%r29
 1854 011c 7A02FF36 		e_bne %cr0,.L128
 1855              	.L151:
 1856              		.loc 1 1535 0 is_stmt 0 discriminator 1
 1857 0120 377F0044 		e_stb %r27,68(%r31)
 1858 0124 30FF0045 		e_lbz %r7,69(%r31)
 1859 0128 00D7     		se_extsb %r7
 1860 012a 0CD7     		se_cmp %r7,%r29
 1861 012c 7A02FF32 		e_bne %cr0,.L129
 1862              	.L152:
 1863              		.loc 1 1535 0 discriminator 4
 1864 0130 377F0045 		e_stb %r27,69(%r31)
 1865 0134 79FFFF2A 		e_b .L129
 1866              	.LVL247:
 1867              	.L153:
 1868              	.LBB78:
 1869              	.LBB71:
 1870              		.loc 1 2302 0 is_stmt 1
 1871 0138 78000001 		e_bl vTaskExitCritical
 1872              	.LVL248:
 1873 013c 01CE     		se_mr %r30,%r28
 1874              	.LBE71:
 1875              	.LBE78:
 1876              		.loc 1 1580 0
 1877 013e 01F3     		se_mr %r3,%r31
 1878 0140 78000001 		e_bl prvUnlockQueue
 1879              	.LVL249:
 1880              		.loc 1 1581 0
 1881 0144 78000001 		e_bl xTaskResumeAll
GAS LISTING C:\Users\marky\AppData\Local\Temp\ccssf6Jk.s 			page 34


 1882              	.LVL250:
 1883 0148 79FFFF60 		e_b .L158
 1884              	.LVL251:
 1885              	.L157:
 1886              	.LBB79:
 1887              	.LBB76:
 1888              		.loc 1 2302 0
 1889 014c 78000001 		e_bl vTaskExitCritical
 1890              	.LVL252:
 1891              	.LBE76:
 1892              	.LBE79:
 1893              		.loc 1 1601 0
 1894 0150 2A09     		se_cmpi %r25,0
 1895 0152 7A020016 		e_bne %cr0,.L159
 1896              	.LVL253:
 1897              	.L145:
 1898              		.loc 1 1629 0
 1899 0156 50010044 		e_lwz %r0,68(%r1)
 1900 015a 0090     		se_mtlr %r0
 1901              		.cfi_remember_state
 1902              		.cfi_restore 65
 1903 015c 1B210824 		e_lmw %r25,36(%r1)
 1904              	.LVL254:
 1905              		.loc 1 1621 0
 1906 0160 4803     		se_li %r3,0
 1907              		.loc 1 1629 0
 1908 0162 18218040 		e_addi %r1,%r1,64
 1909              	.LCFI44:
 1910              		.cfi_restore 31
 1911              		.cfi_restore 30
 1912              		.cfi_restore 29
 1913              		.cfi_restore 28
 1914              		.cfi_restore 27
 1915              		.cfi_restore 26
 1916              		.cfi_restore 25
 1917              		.cfi_def_cfa_offset 0
 1918              	.LVL255:
 1919 0166 0004     		se_blr
 1920              	.LVL256:
 1921              	.L159:
 1922              	.LCFI45:
 1923              		.cfi_restore_state
 1924              		.loc 1 1603 0
 1925 0168 78000001 		e_bl vTaskEnterCritical
 1926              	.LVL257:
 1927              	.LBB80:
 1928              	.LBB81:
 1929              	.LBB82:
 1930              		.loc 1 2055 0
 1931 016c C97F     		se_lwz %r7,36(%r31)
 1932              		.loc 1 2061 0
 1933 016e 4804     		se_li %r4,0
 1934              		.loc 1 2055 0
 1935 0170 2A07     		se_cmpi %r7,0
 1936 0172 7A12000C 		e_beq %cr0,.L136
 1937              		.loc 1 2057 0
 1938 0176 CC7F     		se_lwz %r7,48(%r31)
GAS LISTING C:\Users\marky\AppData\Local\Temp\ccssf6Jk.s 			page 35


 1939 0178 C047     		se_lwz %r4,0(%r7)
 1940 017a 1884B004 		e_subfic %r4, %r4, 4
 1941              	.LVL258:
 1942              	.L136:
 1943              	.LBE82:
 1944              	.LBE81:
 1945              		.loc 1 1613 0
 1946 017e C23F     		se_lwz %r3,8(%r31)
 1947 0180 78000001 		e_bl vTaskPriorityDisinheritAfterTimeout
 1948              	.LVL259:
 1949              	.L144:
 1950              	.LBE80:
 1951              		.loc 1 1615 0
 1952 0184 78000001 		e_bl vTaskExitCritical
 1953              	.LVL260:
 1954 0188 79FFFFCE 		e_b .L145
 1955              	.LVL261:
 1956              	.L154:
 1957              		.loc 1 1552 0
 1958 018c 78000001 		e_bl vTaskEnterCritical
 1959              	.LVL262:
 1960              		.loc 1 1554 0
 1961 0190 C23F     		se_lwz %r3,8(%r31)
 1962 0192 78000001 		e_bl xTaskPriorityInherit
 1963              	.LVL263:
 1964 0196 0139     		se_mr %r25,%r3
 1965              	.LVL264:
 1966              		.loc 1 1556 0
 1967 0198 78000001 		e_bl vTaskExitCritical
 1968              	.LVL265:
 1969 019c 79FFFEF0 		e_b .L138
 1970              	.LVL266:
 1971              	.L156:
 1972              	.LBB83:
 1973              		.loc 1 1479 0
 1974 01a0 187F8010 		e_addi %r3,%r31,16
 1975 01a4 78000001 		e_bl xTaskRemoveFromEventList
 1976              	.LVL267:
 1977 01a8 2A03     		se_cmpi %r3,0
 1978 01aa 7A12FF20 		e_beq %cr0,.L123
 1979              		.loc 1 1481 0
 1980              	 # 1481 "./components/spc5_freertos_component_rla/lib/src/queue.c" 1
 1981 01ae 0002     		se_sc
 1982              	 # 0 "" 2
 1983 01b0 79FFFF1A 		e_b .L123
 1984              	.LVL268:
 1985              	.L155:
 1986              		.loc 1 1466 0
 1987 01b4 78000001 		e_bl pvTaskIncrementMutexHeldCount
 1988              	.LVL269:
 1989 01b8 D23F     		se_stw %r3,8(%r31)
 1990 01ba 79FFFF08 		e_b .L121
 1991              	.LBE83:
 1992              		.cfi_endproc
 1993              	.LFE9:
 1994              		.size	xQueueSemaphoreTake, .-xQueueSemaphoreTake
 1995              		.section	.text.xQueuePeek,"axv",@progbits
GAS LISTING C:\Users\marky\AppData\Local\Temp\ccssf6Jk.s 			page 36


 1996              		.align 1
 1997              		.p2align 4,,15
 1998              		.globl xQueuePeek
 1999              		.type	xQueuePeek, @function
 2000              	xQueuePeek:
 2001              	.LFB10:
 2002              		.loc 1 1633 0
 2003              		.cfi_startproc
 2004              	.LVL270:
 2005 0000 182106C0 		e_stwu %r1,-64(%r1)
 2006              	.LCFI46:
 2007              		.cfi_def_cfa_offset 64
 2008 0004 0080     		se_mflr %r0
 2009 0006 1B210924 		e_stmw %r25,36(%r1)
 2010 000a 54010044 		e_stw %r0,68(%r1)
 2011              		.cfi_offset 65, 4
 2012              		.cfi_offset 25, -28
 2013              		.cfi_offset 26, -24
 2014              		.cfi_offset 27, -20
 2015              		.cfi_offset 28, -16
 2016              		.cfi_offset 29, -12
 2017              		.cfi_offset 30, -8
 2018              		.cfi_offset 31, -4
 2019              		.loc 1 1633 0
 2020 000e 013F     		se_mr %r31,%r3
 2021              	.LVL271:
 2022 0010 0149     		se_mr %r25,%r4
 2023 0012 D651     		se_stw %r5,24(%r1)
 2024              		.loc 1 1741 0
 2025 0014 1B438024 		e_addi %r26,%r3,36
 2026              		.loc 1 1634 0
 2027 0018 480E     		se_li %r30,0
 2028              		.loc 1 1659 0
 2029 001a 78000001 		e_bl vTaskEnterCritical
 2030              	.LVL272:
 2031              		.loc 1 1731 0
 2032 001e 2C0D     		se_bmaski %r29,0
 2033              	.LBB84:
 2034              		.loc 1 1661 0
 2035 0020 CE7F     		se_lwz %r7,56(%r31)
 2036              	.LBE84:
 2037              		.loc 1 1731 0
 2038 0022 480B     		se_li %r27,0
 2039 0024 481C     		se_li %r28,1
 2040              	.LVL273:
 2041              	.LBB85:
 2042              		.loc 1 1665 0
 2043 0026 2A07     		se_cmpi %r7,0
 2044 0028 7A020084 		e_bne %cr0,.L182
 2045              	.L162:
 2046              		.loc 1 1702 0
 2047 002c C671     		se_lwz %r7,24(%r1)
 2048              	.LVL274:
 2049 002e 2A07     		se_cmpi %r7,0
 2050 0030 7A120112 		e_beq %cr0,.L175
 2051              		.loc 1 1710 0
 2052 0034 2A0E     		se_cmpi %r30,0
GAS LISTING C:\Users\marky\AppData\Local\Temp\ccssf6Jk.s 			page 37


 2053 0036 7A1200C0 		e_beq %cr0,.L183
 2054              	.LVL275:
 2055              	.LBE85:
 2056              		.loc 1 1725 0
 2057 003a 78000001 		e_bl vTaskExitCritical
 2058              	.LVL276:
 2059              		.loc 1 1730 0
 2060 003e 78000001 		e_bl vTaskSuspendAll
 2061              	.LVL277:
 2062              		.loc 1 1731 0
 2063 0042 78000001 		e_bl vTaskEnterCritical
 2064              	.LVL278:
 2065 0046 30FF0044 		e_lbz %r7,68(%r31)
 2066 004a 00D7     		se_extsb %r7
 2067 004c 0CD7     		se_cmp %r7,%r29
 2068 004e 7A1200C8 		e_beq %cr0,.L184
 2069              	.L169:
 2070              		.loc 1 1731 0 is_stmt 0 discriminator 3
 2071 0052 30FF0045 		e_lbz %r7,69(%r31)
 2072 0056 00D7     		se_extsb %r7
 2073 0058 0CD7     		se_cmp %r7,%r29
 2074 005a 7A1200CC 		e_beq %cr0,.L185
 2075              	.L170:
 2076              		.loc 1 1731 0 discriminator 6
 2077 005e 78000001 		e_bl vTaskExitCritical
 2078              	.LVL279:
 2079              		.loc 1 1734 0 is_stmt 1 discriminator 6
 2080 0062 18618008 		e_addi %r3,%r1,8
 2081 0066 18818018 		e_addi %r4,%r1,24
 2082              	.LVL280:
 2083 006a 78000001 		e_bl xTaskCheckForTimeOut
 2084              	.LVL281:
 2085 006e 2A03     		se_cmpi %r3,0
 2086 0070 7A020066 		e_bne %cr0,.L171
 2087              	.LVL282:
 2088              	.LBB86:
 2089              	.LBB87:
 2090              		.loc 1 2291 0
 2091 0074 78000001 		e_bl vTaskEnterCritical
 2092              	.LVL283:
 2093              		.loc 1 2293 0
 2094 0078 CE7F     		se_lwz %r7,56(%r31)
 2095 007a 2A07     		se_cmpi %r7,0
 2096 007c 7A0200B2 		e_bne %cr0,.L186
 2097              	.LVL284:
 2098              		.loc 1 2302 0
 2099 0080 78000001 		e_bl vTaskExitCritical
 2100              	.LVL285:
 2101              	.LBE87:
 2102              	.LBE86:
 2103              		.loc 1 1741 0
 2104 0084 C641     		se_lwz %r4,24(%r1)
 2105 0086 01A3     		se_mr %r3,%r26
 2106 0088 78000001 		e_bl vTaskPlaceOnEventList
 2107              	.LVL286:
 2108              		.loc 1 1742 0
 2109 008c 01F3     		se_mr %r3,%r31
GAS LISTING C:\Users\marky\AppData\Local\Temp\ccssf6Jk.s 			page 38


 2110 008e 78000001 		e_bl prvUnlockQueue
 2111              	.LVL287:
 2112              		.loc 1 1743 0
 2113 0092 78000001 		e_bl xTaskResumeAll
 2114              	.LVL288:
 2115 0096 2A03     		se_cmpi %r3,0
 2116 0098 7A020006 		e_bne %cr0,.L174
 2117              		.loc 1 1745 0
 2118              	 # 1745 "./components/spc5_freertos_component_rla/lib/src/queue.c" 1
 2119 009c 0002     		se_sc
 2120              	 # 0 "" 2
 2121              	.L174:
 2122 009e 01CE     		se_mr %r30,%r28
 2123              	.LVL289:
 2124              	.L188:
 2125              		.loc 1 1659 0
 2126 00a0 78000001 		e_bl vTaskEnterCritical
 2127              	.LVL290:
 2128              	.LBB89:
 2129              		.loc 1 1661 0
 2130 00a4 CE7F     		se_lwz %r7,56(%r31)
 2131              	.LVL291:
 2132              		.loc 1 1665 0
 2133 00a6 2A07     		se_cmpi %r7,0
 2134 00a8 7A12FF84 		e_beq %cr0,.L162
 2135              	.LVL292:
 2136              	.L182:
 2137              		.loc 1 1670 0
 2138 00ac C3EF     		se_lwz %r30,12(%r31)
 2139              	.LVL293:
 2140              		.loc 1 1672 0
 2141 00ae 01F3     		se_mr %r3,%r31
 2142 00b0 0194     		se_mr %r4,%r25
 2143 00b2 78000001 		e_bl prvCopyDataFromQueue
 2144              	.LVL294:
 2145              		.loc 1 1680 0
 2146 00b6 C97F     		se_lwz %r7,36(%r31)
 2147              		.loc 1 1676 0
 2148 00b8 D3EF     		se_stw %r30,12(%r31)
 2149              		.loc 1 1680 0
 2150 00ba 2A07     		se_cmpi %r7,0
 2151 00bc 7A02009C 		e_bne %cr0,.L187
 2152              	.L164:
 2153              		.loc 1 1697 0
 2154 00c0 78000001 		e_bl vTaskExitCritical
 2155              	.LVL295:
 2156              	.LBE89:
 2157              		.loc 1 1778 0
 2158 00c4 50010044 		e_lwz %r0,68(%r1)
 2159 00c8 0090     		se_mtlr %r0
 2160              		.cfi_remember_state
 2161              		.cfi_restore 65
 2162 00ca 1B210824 		e_lmw %r25,36(%r1)
 2163              	.LVL296:
 2164              	.LBB90:
 2165              		.loc 1 1698 0
 2166 00ce 4813     		se_li %r3,1
GAS LISTING C:\Users\marky\AppData\Local\Temp\ccssf6Jk.s 			page 39


 2167              	.LBE90:
 2168              		.loc 1 1778 0
 2169 00d0 18218040 		e_addi %r1,%r1,64
 2170              	.LCFI47:
 2171              		.cfi_restore 25
 2172              		.cfi_restore 26
 2173              		.cfi_restore 27
 2174              		.cfi_restore 28
 2175              		.cfi_restore 29
 2176              		.cfi_restore 30
 2177              		.cfi_restore 31
 2178              		.cfi_def_cfa_offset 0
 2179              	.LVL297:
 2180 00d4 0004     		se_blr
 2181              	.LVL298:
 2182              	.L171:
 2183              	.LCFI48:
 2184              		.cfi_restore_state
 2185              		.loc 1 1764 0
 2186 00d6 01F3     		se_mr %r3,%r31
 2187 00d8 78000001 		e_bl prvUnlockQueue
 2188              	.LVL299:
 2189              		.loc 1 1765 0
 2190 00dc 78000001 		e_bl xTaskResumeAll
 2191              	.LVL300:
 2192              	.LBB91:
 2193              	.LBB92:
 2194              		.loc 1 2291 0
 2195 00e0 78000001 		e_bl vTaskEnterCritical
 2196              	.LVL301:
 2197              		.loc 1 2293 0
 2198 00e4 CE7F     		se_lwz %r7,56(%r31)
 2199 00e6 2A07     		se_cmpi %r7,0
 2200 00e8 7A12005A 		e_beq %cr0,.L175
 2201              	.LVL302:
 2202              		.loc 1 2302 0
 2203 00ec 78000001 		e_bl vTaskExitCritical
 2204              	.LVL303:
 2205 00f0 01CE     		se_mr %r30,%r28
 2206 00f2 79FFFFAE 		e_b .L188
 2207              	.LVL304:
 2208              	.L183:
 2209              	.LBE92:
 2210              	.LBE91:
 2211              	.LBB93:
 2212              		.loc 1 1715 0
 2213 00f6 18618008 		e_addi %r3,%r1,8
 2214 00fa 78000001 		e_bl vTaskInternalSetTimeOutState
 2215              	.LVL305:
 2216              	.LBE93:
 2217              		.loc 1 1725 0
 2218 00fe 78000001 		e_bl vTaskExitCritical
 2219              	.LVL306:
 2220              		.loc 1 1730 0
 2221 0102 78000001 		e_bl vTaskSuspendAll
 2222              	.LVL307:
 2223              		.loc 1 1731 0
GAS LISTING C:\Users\marky\AppData\Local\Temp\ccssf6Jk.s 			page 40


 2224 0106 78000001 		e_bl vTaskEnterCritical
 2225              	.LVL308:
 2226 010a 30FF0044 		e_lbz %r7,68(%r31)
 2227 010e 00D7     		se_extsb %r7
 2228 0110 0CD7     		se_cmp %r7,%r29
 2229 0112 7A02FF40 		e_bne %cr0,.L169
 2230              	.L184:
 2231              		.loc 1 1731 0 is_stmt 0 discriminator 1
 2232 0116 377F0044 		e_stb %r27,68(%r31)
 2233 011a 30FF0045 		e_lbz %r7,69(%r31)
 2234 011e 00D7     		se_extsb %r7
 2235 0120 0CD7     		se_cmp %r7,%r29
 2236 0122 7A02FF3C 		e_bne %cr0,.L170
 2237              	.L185:
 2238              		.loc 1 1731 0 discriminator 4
 2239 0126 377F0045 		e_stb %r27,69(%r31)
 2240 012a 79FFFF34 		e_b .L170
 2241              	.LVL309:
 2242              	.L186:
 2243              	.LBB94:
 2244              	.LBB88:
 2245              		.loc 1 2302 0 is_stmt 1
 2246 012e 78000001 		e_bl vTaskExitCritical
 2247              	.LVL310:
 2248 0132 01CE     		se_mr %r30,%r28
 2249              	.LBE88:
 2250              	.LBE94:
 2251              		.loc 1 1756 0
 2252 0134 01F3     		se_mr %r3,%r31
 2253 0136 78000001 		e_bl prvUnlockQueue
 2254              	.LVL311:
 2255              		.loc 1 1757 0
 2256 013a 78000001 		e_bl xTaskResumeAll
 2257              	.LVL312:
 2258 013e 79FFFF62 		e_b .L188
 2259              	.LVL313:
 2260              	.L175:
 2261              	.LBB95:
 2262              		.loc 1 1706 0
 2263 0142 78000001 		e_bl vTaskExitCritical
 2264              	.LVL314:
 2265              	.LBE95:
 2266              		.loc 1 1778 0
 2267 0146 50010044 		e_lwz %r0,68(%r1)
 2268 014a 0090     		se_mtlr %r0
 2269              		.cfi_remember_state
 2270              		.cfi_restore 65
 2271 014c 1B210824 		e_lmw %r25,36(%r1)
 2272              	.LVL315:
 2273              	.LBB96:
 2274              		.loc 1 1708 0
 2275 0150 4803     		se_li %r3,0
 2276              	.LBE96:
 2277              		.loc 1 1778 0
 2278 0152 18218040 		e_addi %r1,%r1,64
 2279              	.LCFI49:
 2280              		.cfi_restore 31
GAS LISTING C:\Users\marky\AppData\Local\Temp\ccssf6Jk.s 			page 41


 2281              		.cfi_restore 30
 2282              		.cfi_restore 29
 2283              		.cfi_restore 28
 2284              		.cfi_restore 27
 2285              		.cfi_restore 26
 2286              		.cfi_restore 25
 2287              		.cfi_def_cfa_offset 0
 2288              	.LVL316:
 2289 0156 0004     		se_blr
 2290              	.LVL317:
 2291              	.L187:
 2292              	.LCFI50:
 2293              		.cfi_restore_state
 2294              	.LBB97:
 2295              		.loc 1 1682 0
 2296 0158 187F8024 		e_addi %r3,%r31,36
 2297 015c 78000001 		e_bl xTaskRemoveFromEventList
 2298              	.LVL318:
 2299 0160 2A03     		se_cmpi %r3,0
 2300 0162 7A12FF5E 		e_beq %cr0,.L164
 2301              		.loc 1 1685 0
 2302              	 # 1685 "./components/spc5_freertos_component_rla/lib/src/queue.c" 1
 2303 0166 0002     		se_sc
 2304              	 # 0 "" 2
 2305 0168 79FFFF58 		e_b .L164
 2306              	.LBE97:
 2307              		.cfi_endproc
 2308              	.LFE10:
 2309              		.size	xQueuePeek, .-xQueuePeek
 2310              		.section	.text.xQueueReceiveFromISR,"axv",@progbits
 2311              		.align 1
 2312              		.p2align 4,,15
 2313              		.globl xQueueReceiveFromISR
 2314              		.type	xQueueReceiveFromISR, @function
 2315              	xQueueReceiveFromISR:
 2316              	.LFB11:
 2317              		.loc 1 1782 0
 2318              		.cfi_startproc
 2319              	.LVL319:
 2320 0000 182106E8 		e_stwu %r1,-24(%r1)
 2321              	.LCFI51:
 2322              		.cfi_def_cfa_offset 24
 2323 0004 0080     		se_mflr %r0
 2324 0006 1B810908 		e_stmw %r28,8(%r1)
 2325 000a D701     		se_stw %r0,28(%r1)
 2326              		.cfi_offset 65, 4
 2327              		.cfi_offset 28, -16
 2328              		.cfi_offset 29, -12
 2329              		.cfi_offset 30, -8
 2330              		.cfi_offset 31, -4
 2331              	.LBB98:
 2332              		.loc 1 1862 0
 2333 000c 4806     		se_li %r6,0
 2334              		.loc 1 1808 0
 2335 000e CEE3     		se_lwz %r30,56(%r3)
 2336              	.LVL320:
 2337              		.loc 1 1811 0
GAS LISTING C:\Users\marky\AppData\Local\Temp\ccssf6Jk.s 			page 42


 2338 0010 2A0E     		se_cmpi %r30,0
 2339 0012 7A020012 		e_bne %cr0,.L195
 2340              	.LVL321:
 2341              	.L190:
 2342              	.LBE98:
 2343              		.loc 1 1869 0
 2344 0016 C701     		se_lwz %r0,28(%r1)
 2345 0018 0090     		se_mtlr %r0
 2346              		.cfi_remember_state
 2347              		.cfi_restore 65
 2348 001a 1B810808 		e_lmw %r28,8(%r1)
 2349 001e 0163     		se_mr %r3,%r6
 2350 0020 2171     		se_addi %r1,24
 2351              	.LCFI52:
 2352              		.cfi_restore 31
 2353              		.cfi_restore 30
 2354              		.cfi_restore 29
 2355              		.cfi_restore 28
 2356              		.cfi_def_cfa_offset 0
 2357 0022 0004     		se_blr
 2358              	.LVL322:
 2359              	.L195:
 2360              	.LCFI53:
 2361              		.cfi_restore_state
 2362 0024 013F     		se_mr %r31,%r3
 2363              	.LBB102:
 2364              	.LBB99:
 2365              		.loc 1 1813 0
 2366 0026 33A30044 		e_lbz %r29,68(%r3)
 2367 002a 015C     		se_mr %r28,%r5
 2368              		.loc 1 1817 0
 2369 002c 78000001 		e_bl prvCopyDataFromQueue
 2370              	.LVL323:
 2371              		.loc 1 1818 0
 2372 0030 2C06     		se_bmaski %r6,0
 2373              		.loc 1 1813 0
 2374 0032 7FA70774 		extsb %r7,%r29
 2375              	.LVL324:
 2376              		.loc 1 1818 0
 2377 0036 046E     		se_add %r30,%r6
 2378              	.LVL325:
 2379              		.loc 1 1824 0
 2380 0038 0C67     		se_cmp %r7,%r6
 2381              		.loc 1 1818 0
 2382 003a DEEF     		se_stw %r30,56(%r31)
 2383              		.loc 1 1824 0
 2384 003c 7A12001C 		e_beq %cr0,.L196
 2385              		.loc 1 1855 0
 2386 0040 200D     		se_addi %r29,1
 2387              	.LVL326:
 2388 0042 00DD     		se_extsb %r29
 2389 0044 37BF0044 		e_stb %r29,68(%r31)
 2390              	.LBE99:
 2391              	.LBE102:
 2392              		.loc 1 1869 0
 2393 0048 C701     		se_lwz %r0,28(%r1)
 2394 004a 0090     		se_mtlr %r0
GAS LISTING C:\Users\marky\AppData\Local\Temp\ccssf6Jk.s 			page 43


 2395              		.cfi_remember_state
 2396              		.cfi_restore 65
 2397 004c 1B810808 		e_lmw %r28,8(%r1)
 2398              	.LVL327:
 2399              	.LBB103:
 2400              	.LBB100:
 2401              		.loc 1 1858 0
 2402 0050 4816     		se_li %r6,1
 2403              	.LVL328:
 2404              	.LBE100:
 2405              	.LBE103:
 2406              		.loc 1 1869 0
 2407 0052 0163     		se_mr %r3,%r6
 2408 0054 2171     		se_addi %r1,24
 2409              	.LCFI54:
 2410              		.cfi_restore 28
 2411              		.cfi_restore 29
 2412              		.cfi_restore 30
 2413              		.cfi_restore 31
 2414              		.cfi_def_cfa_offset 0
 2415 0056 0004     		se_blr
 2416              	.LVL329:
 2417              	.L196:
 2418              	.LCFI55:
 2419              		.cfi_restore_state
 2420              	.LBB104:
 2421              	.LBB101:
 2422              		.loc 1 1826 0
 2423 0058 C47F     		se_lwz %r7,16(%r31)
 2424 005a 2A07     		se_cmpi %r7,0
 2425 005c 7A02000A 		e_bne %cr0,.L192
 2426              	.L193:
 2427              		.loc 1 1858 0
 2428 0060 4816     		se_li %r6,1
 2429 0062 79FFFFB4 		e_b .L190
 2430              	.L192:
 2431              		.loc 1 1828 0
 2432 0066 187F8010 		e_addi %r3,%r31,16
 2433 006a 78000001 		e_bl xTaskRemoveFromEventList
 2434              	.LVL330:
 2435 006e 2A03     		se_cmpi %r3,0
 2436 0070 7A12FFF0 		e_beq %cr0,.L193
 2437              		.loc 1 1832 0
 2438 0074 2A0C     		se_cmpi %r28,0
 2439 0076 7A12FFEA 		e_beq %cr0,.L193
 2440              		.loc 1 1834 0
 2441 007a 4817     		se_li %r7,1
 2442              		.loc 1 1858 0
 2443 007c 4816     		se_li %r6,1
 2444              		.loc 1 1834 0
 2445 007e D07C     		se_stw %r7,0(%r28)
 2446 0080 79FFFF96 		e_b .L190
 2447              	.LBE101:
 2448              	.LBE104:
 2449              		.cfi_endproc
 2450              	.LFE11:
 2451              		.size	xQueueReceiveFromISR, .-xQueueReceiveFromISR
GAS LISTING C:\Users\marky\AppData\Local\Temp\ccssf6Jk.s 			page 44


 2452              		.section	.text.xQueuePeekFromISR,"axv",@progbits
 2453              		.align 1
 2454              		.p2align 4,,15
 2455              		.globl xQueuePeekFromISR
 2456              		.type	xQueuePeekFromISR, @function
 2457              	xQueuePeekFromISR:
 2458              	.LFB12:
 2459              		.loc 1 1873 0
 2460              		.cfi_startproc
 2461              	.LVL331:
 2462 0000 182106F0 		e_stwu %r1,-16(%r1)
 2463              	.LCFI56:
 2464              		.cfi_def_cfa_offset 16
 2465 0004 0080     		se_mflr %r0
 2466 0006 1BC10908 		e_stmw %r30,8(%r1)
 2467 000a D501     		se_stw %r0,20(%r1)
 2468              		.cfi_offset 65, 4
 2469              		.cfi_offset 30, -8
 2470              		.cfi_offset 31, -4
 2471              		.loc 1 1916 0
 2472 000c 4805     		se_li %r5,0
 2473              		.loc 1 1902 0
 2474 000e CE73     		se_lwz %r7,56(%r3)
 2475 0010 2A07     		se_cmpi %r7,0
 2476 0012 7A120010 		e_beq %cr0,.L198
 2477 0016 013F     		se_mr %r31,%r3
 2478              		.loc 1 1908 0
 2479 0018 C3E3     		se_lwz %r30,12(%r3)
 2480              	.LVL332:
 2481              		.loc 1 1909 0
 2482 001a 78000001 		e_bl prvCopyDataFromQueue
 2483              	.LVL333:
 2484              		.loc 1 1910 0
 2485 001e D3EF     		se_stw %r30,12(%r31)
 2486              	.LVL334:
 2487              		.loc 1 1912 0
 2488 0020 4815     		se_li %r5,1
 2489              	.LVL335:
 2490              	.L198:
 2491              		.loc 1 1923 0
 2492 0022 C501     		se_lwz %r0,20(%r1)
 2493 0024 0090     		se_mtlr %r0
 2494              		.cfi_restore 65
 2495 0026 1BC10808 		e_lmw %r30,8(%r1)
 2496 002a 0153     		se_mr %r3,%r5
 2497 002c 20F1     		se_addi %r1,16
 2498              	.LCFI57:
 2499              		.cfi_restore 31
 2500              		.cfi_restore 30
 2501              		.cfi_def_cfa_offset 0
 2502 002e 0004     		se_blr
 2503              		.cfi_endproc
 2504              	.LFE12:
 2505              		.size	xQueuePeekFromISR, .-xQueuePeekFromISR
 2506              		.section	.text.uxQueueMessagesWaiting,"axv",@progbits
 2507              		.align 1
 2508              		.p2align 4,,15
GAS LISTING C:\Users\marky\AppData\Local\Temp\ccssf6Jk.s 			page 45


 2509              		.globl uxQueueMessagesWaiting
 2510              		.type	uxQueueMessagesWaiting, @function
 2511              	uxQueueMessagesWaiting:
 2512              	.LFB13:
 2513              		.loc 1 1927 0
 2514              		.cfi_startproc
 2515              	.LVL336:
 2516 0000 182106F0 		e_stwu %r1,-16(%r1)
 2517              	.LCFI58:
 2518              		.cfi_def_cfa_offset 16
 2519 0004 0080     		se_mflr %r0
 2520 0006 D3F1     		se_stw %r31,12(%r1)
 2521 0008 D501     		se_stw %r0,20(%r1)
 2522              		.cfi_offset 65, 4
 2523              		.cfi_offset 31, -4
 2524              		.loc 1 1927 0
 2525 000a 013F     		se_mr %r31,%r3
 2526              		.loc 1 1932 0
 2527 000c 78000001 		e_bl vTaskEnterCritical
 2528              	.LVL337:
 2529              		.loc 1 1934 0
 2530 0010 CEFF     		se_lwz %r31,56(%r31)
 2531              	.LVL338:
 2532              		.loc 1 1936 0
 2533 0012 78000001 		e_bl vTaskExitCritical
 2534              	.LVL339:
 2535              		.loc 1 1939 0
 2536 0016 C501     		se_lwz %r0,20(%r1)
 2537 0018 0090     		se_mtlr %r0
 2538              		.cfi_restore 65
 2539 001a 01F3     		se_mr %r3,%r31
 2540 001c C3F1     		se_lwz %r31,12(%r1)
 2541              	.LVL340:
 2542 001e 20F1     		se_addi %r1,16
 2543              	.LCFI59:
 2544              		.cfi_restore 31
 2545              		.cfi_def_cfa_offset 0
 2546 0020 0004     		se_blr
 2547              		.cfi_endproc
 2548              	.LFE13:
 2549              		.size	uxQueueMessagesWaiting, .-uxQueueMessagesWaiting
 2550              		.section	.text.uxQueueSpacesAvailable,"axv",@progbits
 2551              		.align 1
 2552              		.p2align 4,,15
 2553              		.globl uxQueueSpacesAvailable
 2554              		.type	uxQueueSpacesAvailable, @function
 2555              	uxQueueSpacesAvailable:
 2556              	.LFB14:
 2557              		.loc 1 1943 0
 2558              		.cfi_startproc
 2559              	.LVL341:
 2560 0000 182106F0 		e_stwu %r1,-16(%r1)
 2561              	.LCFI60:
 2562              		.cfi_def_cfa_offset 16
 2563 0004 0080     		se_mflr %r0
 2564 0006 1BC10908 		e_stmw %r30,8(%r1)
 2565 000a D501     		se_stw %r0,20(%r1)
GAS LISTING C:\Users\marky\AppData\Local\Temp\ccssf6Jk.s 			page 46


 2566              		.cfi_offset 65, 4
 2567              		.cfi_offset 30, -8
 2568              		.cfi_offset 31, -4
 2569              		.loc 1 1943 0
 2570 000c 013E     		se_mr %r30,%r3
 2571              	.LVL342:
 2572              		.loc 1 1949 0
 2573 000e 78000001 		e_bl vTaskEnterCritical
 2574              	.LVL343:
 2575              		.loc 1 1951 0
 2576 0012 CEFE     		se_lwz %r31,56(%r30)
 2577 0014 CF7E     		se_lwz %r7,60(%r30)
 2578 0016 077F     		se_subf %r31, %r7
 2579              	.LVL344:
 2580              		.loc 1 1953 0
 2581 0018 78000001 		e_bl vTaskExitCritical
 2582              	.LVL345:
 2583              		.loc 1 1956 0
 2584 001c C501     		se_lwz %r0,20(%r1)
 2585 001e 0090     		se_mtlr %r0
 2586              		.cfi_restore 65
 2587 0020 01F3     		se_mr %r3,%r31
 2588 0022 1BC10808 		e_lmw %r30,8(%r1)
 2589              	.LVL346:
 2590 0026 20F1     		se_addi %r1,16
 2591              	.LCFI61:
 2592              		.cfi_restore 31
 2593              		.cfi_restore 30
 2594              		.cfi_def_cfa_offset 0
 2595 0028 0004     		se_blr
 2596              		.cfi_endproc
 2597              	.LFE14:
 2598              		.size	uxQueueSpacesAvailable, .-uxQueueSpacesAvailable
 2599              		.section	.text.uxQueueMessagesWaitingFromISR,"axv",@progbits
 2600              		.align 1
 2601              		.p2align 4,,15
 2602              		.globl uxQueueMessagesWaitingFromISR
 2603              		.type	uxQueueMessagesWaitingFromISR, @function
 2604              	uxQueueMessagesWaitingFromISR:
 2605              	.LFB15:
 2606              		.loc 1 1960 0
 2607              		.cfi_startproc
 2608              	.LVL347:
 2609              		.loc 1 1965 0
 2610 0000 CE33     		se_lwz %r3,56(%r3)
 2611              	.LVL348:
 2612              		.loc 1 1968 0
 2613 0002 0004     		se_blr
 2614              		.cfi_endproc
 2615              	.LFE15:
 2616              		.size	uxQueueMessagesWaitingFromISR, .-uxQueueMessagesWaitingFromISR
 2617              		.section	.text.vQueueDelete,"axv",@progbits
 2618              		.align 1
 2619              		.p2align 4,,15
 2620              		.globl vQueueDelete
 2621              		.type	vQueueDelete, @function
 2622              	vQueueDelete:
GAS LISTING C:\Users\marky\AppData\Local\Temp\ccssf6Jk.s 			page 47


 2623              	.LFB16:
 2624              		.loc 1 1972 0
 2625              		.cfi_startproc
 2626              	.LVL349:
 2627 0000 70C0E000 		e_lis %r6,.LANCHOR0@ha
 2628              	.LBB105:
 2629              	.LBB106:
 2630              		.loc 1 2707 0
 2631 0004 4847     		se_li %r7,4
 2632 0006 1CC60000 		e_la %r6,.LANCHOR0@l(%r6)
 2633 000a 4805     		se_li %r5,0
 2634 000c 00B7     		se_mtctr %r7
 2635              	.LVL350:
 2636              	.L206:
 2637              		.loc 1 2709 0
 2638 000e C176     		se_lwz %r7,4(%r6)
 2639 0010 0C73     		se_cmp %r3,%r7
 2640 0012 7A120010 		e_beq %cr0,.L208
 2641              		.loc 1 2707 0
 2642 0016 2005     		se_addi %r5,1
 2643              	.LVL351:
 2644 0018 2076     		se_addi %r6,8
 2645 001a 7A20FFF4 		e_bdnz .L206
 2646              	.LBE106:
 2647              	.LBE105:
 2648              		.loc 1 2010 0
 2649              		.loc 1 1988 0
 2650 001e 78000000 		e_b vPortFree
 2651              	.LVL352:
 2652              	.L208:
 2653              	.LBB108:
 2654              	.LBB107:
 2655              		.loc 1 2712 0
 2656 0022 6C35     		se_slwi %r5, 3
 2657              	.LVL353:
 2658 0024 4806     		se_li %r6,0
 2659 0026 70E0E000 		e_lis %r7,.LANCHOR0@ha
 2660 002a 1CE70000 		e_la %r7,.LANCHOR0@l(%r7)
 2661 002e 7C872A14 		add %r4,%r7,%r5
 2662 0032 7CC7292E 		stwx %r6,%r7,%r5
 2663              		.loc 1 2717 0
 2664 0036 D164     		se_stw %r6,4(%r4)
 2665              	.LBE107:
 2666              	.LBE108:
 2667              		.loc 1 2010 0
 2668              		.loc 1 1988 0
 2669 0038 78000000 		e_b vPortFree
 2670              	.LVL354:
 2671              		.cfi_endproc
 2672              	.LFE16:
 2673              		.size	vQueueDelete, .-vQueueDelete
 2674              		.section	.text.xQueueIsQueueEmptyFromISR,"axv",@progbits
 2675              		.align 1
 2676              		.p2align 4,,15
 2677              		.globl xQueueIsQueueEmptyFromISR
 2678              		.type	xQueueIsQueueEmptyFromISR, @function
 2679              	xQueueIsQueueEmptyFromISR:
GAS LISTING C:\Users\marky\AppData\Local\Temp\ccssf6Jk.s 			page 48


 2680              	.LFB22:
 2681              		.loc 1 2309 0
 2682              		.cfi_startproc
 2683              	.LVL355:
 2684              		.loc 1 2314 0
 2685 0000 CE33     		se_lwz %r3,56(%r3)
 2686              	.LVL356:
 2687 0002 4807     		se_li %r7,0
 2688 0004 2A03     		se_cmpi %r3,0
 2689 0006 4816     		se_li %r6,1
 2690 0008 7C66389E 		isel %r3,%r6,%r7,2
 2691              	.LVL357:
 2692              		.loc 1 2324 0
 2693 000c 0004     		se_blr
 2694              		.cfi_endproc
 2695              	.LFE22:
 2696              		.size	xQueueIsQueueEmptyFromISR, .-xQueueIsQueueEmptyFromISR
 2697              		.section	.text.xQueueIsQueueFullFromISR,"axv",@progbits
 2698              		.align 1
 2699              		.p2align 4,,15
 2700              		.globl xQueueIsQueueFullFromISR
 2701              		.type	xQueueIsQueueFullFromISR, @function
 2702              	xQueueIsQueueFullFromISR:
 2703              	.LFB24:
 2704              		.loc 1 2349 0
 2705              		.cfi_startproc
 2706              	.LVL358:
 2707              		.loc 1 2354 0
 2708 0000 CE63     		se_lwz %r6,56(%r3)
 2709              	.LVL359:
 2710 0002 CF33     		se_lwz %r3,60(%r3)
 2711              	.LVL360:
 2712              		.loc 1 2364 0
 2713 0004 7CC31A78 		xor %r3,%r6,%r3
 2714              	.LVL361:
 2715 0008 7C630034 		cntlzw %r3,%r3
 2716 000c 6853     		se_srwi %r3,5
 2717 000e 0004     		se_blr
 2718              		.cfi_endproc
 2719              	.LFE24:
 2720              		.size	xQueueIsQueueFullFromISR, .-xQueueIsQueueFullFromISR
 2721              		.section	.text.vQueueAddToRegistry,"axv",@progbits
 2722              		.align 1
 2723              		.p2align 4,,15
 2724              		.globl vQueueAddToRegistry
 2725              		.type	vQueueAddToRegistry, @function
 2726              	vQueueAddToRegistry:
 2727              	.LFB25:
 2728              		.loc 1 2645 0
 2729              		.cfi_startproc
 2730              	.LVL362:
 2731              		.loc 1 2652 0
 2732 0000 7160E000 		e_lis %r11,.LANCHOR0@ha
 2733 0004 4847     		se_li %r7,4
 2734              		.loc 1 2650 0
 2735 0006 4806     		se_li %r6,0
 2736              		.loc 1 2652 0
GAS LISTING C:\Users\marky\AppData\Local\Temp\ccssf6Jk.s 			page 49


 2737 0008 1D6B0000 		e_la %r11,.LANCHOR0@l(%r11)
 2738 000c 00B7     		se_mtctr %r7
 2739              	.LVL363:
 2740              	.L214:
 2741 000e 7CC51870 		e_slwi %r5,%r6,3
 2742 0012 7CE5582E 		lwzx %r7,%r5,%r11
 2743 0016 2A07     		se_cmpi %r7,0
 2744 0018 7A12000C 		e_beq %cr0,.L216
 2745              		.loc 1 2650 0 discriminator 2
 2746 001c 2006     		se_addi %r6,1
 2747              	.LVL364:
 2748 001e 7A20FFF0 		e_bdnz .L214
 2749 0022 0004     		se_blr
 2750              	.L216:
 2751              		.loc 1 2655 0
 2752 0024 7CEB2A14 		add %r7,%r11,%r5
 2753 0028 7C8B292E 		stwx %r4,%r11,%r5
 2754              		.loc 1 2656 0
 2755 002c D137     		se_stw %r3,4(%r7)
 2756              		.loc 1 2659 0
 2757 002e 0004     		se_blr
 2758              		.cfi_endproc
 2759              	.LFE25:
 2760              		.size	vQueueAddToRegistry, .-vQueueAddToRegistry
 2761              		.section	.text.pcQueueGetName,"axv",@progbits
 2762              		.align 1
 2763              		.p2align 4,,15
 2764              		.globl pcQueueGetName
 2765              		.type	pcQueueGetName, @function
 2766              	pcQueueGetName:
 2767              	.LFB26:
 2768              		.loc 1 2674 0
 2769              		.cfi_startproc
 2770              	.LVL365:
 2771 0000 70C0E000 		e_lis %r6,.LANCHOR0@ha
 2772              		.loc 1 2680 0
 2773 0004 4847     		se_li %r7,4
 2774 0006 1CC60000 		e_la %r6,.LANCHOR0@l(%r6)
 2775 000a 4805     		se_li %r5,0
 2776 000c 00B7     		se_mtctr %r7
 2777              	.LVL366:
 2778              	.L220:
 2779              		.loc 1 2682 0
 2780 000e C176     		se_lwz %r7,4(%r6)
 2781 0010 0C37     		se_cmp %r7,%r3
 2782 0012 7A120010 		e_beq %cr0,.L222
 2783              		.loc 1 2680 0 discriminator 2
 2784 0016 2005     		se_addi %r5,1
 2785              	.LVL367:
 2786 0018 2076     		se_addi %r6,8
 2787 001a 7A20FFF4 		e_bdnz .L220
 2788              		.loc 1 2676 0
 2789 001e 4803     		se_li %r3,0
 2790              	.LVL368:
 2791              		.loc 1 2694 0
 2792 0020 0004     		se_blr
 2793              	.LVL369:
GAS LISTING C:\Users\marky\AppData\Local\Temp\ccssf6Jk.s 			page 50


 2794              	.L222:
 2795              		.loc 1 2684 0
 2796 0022 6C35     		se_slwi %r5, 3
 2797              	.LVL370:
 2798 0024 70E0E000 		e_lis %r7,.LANCHOR0@ha
 2799 0028 1CE70000 		e_la %r7,.LANCHOR0@l(%r7)
 2800 002c 7C67282E 		lwzx %r3,%r7,%r5
 2801              	.LVL371:
 2802              		.loc 1 2685 0
 2803 0030 0004     		se_blr
 2804              		.cfi_endproc
 2805              	.LFE26:
 2806              		.size	pcQueueGetName, .-pcQueueGetName
 2807              		.section	.text.vQueueUnregisterQueue,"axv",@progbits
 2808              		.align 1
 2809              		.p2align 4,,15
 2810              		.globl vQueueUnregisterQueue
 2811              		.type	vQueueUnregisterQueue, @function
 2812              	vQueueUnregisterQueue:
 2813              	.LFB27:
 2814              		.loc 1 2702 0
 2815              		.cfi_startproc
 2816              	.LVL372:
 2817 0000 70C0E000 		e_lis %r6,.LANCHOR0@ha
 2818              		.loc 1 2707 0
 2819 0004 4847     		se_li %r7,4
 2820 0006 1CC60000 		e_la %r6,.LANCHOR0@l(%r6)
 2821 000a 4805     		se_li %r5,0
 2822 000c 00B7     		se_mtctr %r7
 2823              	.LVL373:
 2824              	.L226:
 2825              		.loc 1 2709 0
 2826 000e C176     		se_lwz %r7,4(%r6)
 2827 0010 0C37     		se_cmp %r7,%r3
 2828 0012 7A12000E 		e_beq %cr0,.L228
 2829              		.loc 1 2707 0 discriminator 2
 2830 0016 2005     		se_addi %r5,1
 2831              	.LVL374:
 2832 0018 2076     		se_addi %r6,8
 2833 001a 7A20FFF4 		e_bdnz .L226
 2834 001e 0004     		se_blr
 2835              	.L228:
 2836              		.loc 1 2712 0
 2837 0020 6C35     		se_slwi %r5, 3
 2838              	.LVL375:
 2839 0022 4806     		se_li %r6,0
 2840 0024 70E0E000 		e_lis %r7,.LANCHOR0@ha
 2841 0028 1CE70000 		e_la %r7,.LANCHOR0@l(%r7)
 2842 002c 7C872A14 		add %r4,%r7,%r5
 2843 0030 7CC7292E 		stwx %r6,%r7,%r5
 2844              		.loc 1 2717 0
 2845 0034 D164     		se_stw %r6,4(%r4)
 2846              		.loc 1 2718 0
 2847 0036 0004     		se_blr
 2848              		.cfi_endproc
 2849              	.LFE27:
 2850              		.size	vQueueUnregisterQueue, .-vQueueUnregisterQueue
GAS LISTING C:\Users\marky\AppData\Local\Temp\ccssf6Jk.s 			page 51


 2851              		.globl xQueueRegistry
 2852              		.section	.bss.xQueueRegistry,"aw",@nobits
 2853              		.align 2
 2854              		.set	.LANCHOR0,. + 0
 2855              		.type	xQueueRegistry, @object
 2856              		.size	xQueueRegistry, 32
 2857              	xQueueRegistry:
 2858 0000 00000000 		.zero	32
 2858      00000000 
 2858      00000000 
 2858      00000000 
 2858      00000000 
 2859              		.section	".text","axv"
 2860              	.Letext0:
 2861              		.file 2 "c:\\spc5studio\\eclipse\\plugins\\com.st.tools.spc5.tools.gnu.gcc.ppcvle.win32_4.9.4.2018
 2862              		.file 3 "c:\\spc5studio\\eclipse\\plugins\\com.st.tools.spc5.tools.gnu.gcc.ppcvle.win32_4.9.4.2018
 2863              		.file 4 "c:\\spc5studio\\eclipse\\plugins\\com.st.tools.spc5.tools.gnu.gcc.ppcvle.win32_4.9.4.2018
 2864              		.file 5 "./components/spc5_freertos_component_rla/lib/portable/portmacro.h"
 2865              		.file 6 "./components/spc5_freertos_component_rla/lib/include/list.h"
 2866              		.file 7 "./components/spc5_freertos_component_rla/lib/include/task.h"
 2867              		.file 8 "./components/spc5_freertos_component_rla/lib/include/queue.h"
 2868              		.file 9 "./components/spc5_freertos_component_rla/lib/include/portable.h"