GAS LISTING C:\Users\marky\AppData\Local\Temp\ccDkf0tP.s 			page 1


   1              		.file	"spc5_emios.c"
   2              		.section	".text","axv"
   3              	.Ltext0:
   4              		.cfi_sections	.debug_frame
   5              		.section	.text.reset_emios0_active_ch_group,"axv",@progbits
   6              		.align 1
   7              		.p2align 4,,15
   8              		.globl reset_emios0_active_ch_group
   9              		.type	reset_emios0_active_ch_group, @function
  10              	reset_emios0_active_ch_group:
  11              	.LFB5:
  12              		.file 1 "./components/spc560bxx_low_level_drivers_component_rla/lib/src/spc5_emios.c"
  13              		.loc 1 65 0
  14              		.cfi_startproc
  15              		.loc 1 66 0
  16 0000 4806     		se_li %r6,0
  17 0002 70E0E000 		e_lis %r7,.LANCHOR0@ha
  18 0006 54C70000 		e_stw %r6,.LANCHOR0@l(%r7)
  19 000a 0004     		se_blr
  20              		.cfi_endproc
  21              	.LFE5:
  22              		.size	reset_emios0_active_ch_group, .-reset_emios0_active_ch_group
  23              		.section	.text.get_emios0_active_ch_group,"axv",@progbits
  24              		.align 1
  25              		.p2align 4,,15
  26              		.globl get_emios0_active_ch_group
  27              		.type	get_emios0_active_ch_group, @function
  28              	get_emios0_active_ch_group:
  29              	.LFB6:
  30              		.loc 1 69 0
  31              		.cfi_startproc
  32              		.loc 1 70 0
  33 0000 70E0E000 		e_lis %r7,.LANCHOR0@ha
  34              		.loc 1 71 0
  35 0004 50670000 		e_lwz %r3,.LANCHOR0@l(%r7)
  36 0008 0004     		se_blr
  37              		.cfi_endproc
  38              	.LFE6:
  39              		.size	get_emios0_active_ch_group, .-get_emios0_active_ch_group
  40              		.section	.text.increase_emios0_active_ch_group,"axv",@progbits
  41              		.align 1
  42              		.p2align 4,,15
  43              		.globl increase_emios0_active_ch_group
  44              		.type	increase_emios0_active_ch_group, @function
  45              	increase_emios0_active_ch_group:
  46              	.LFB7:
  47              		.loc 1 73 0
  48              		.cfi_startproc
  49              		.loc 1 74 0
  50 0000 70C0E000 		e_lis %r6,.LANCHOR0@ha
  51 0004 50E60000 		e_lwz %r7,.LANCHOR0@l(%r6)
  52 0008 2007     		se_addi %r7,1
  53 000a 54E60000 		e_stw %r7,.LANCHOR0@l(%r6)
  54 000e 0004     		se_blr
  55              		.cfi_endproc
  56              	.LFE7:
  57              		.size	increase_emios0_active_ch_group, .-increase_emios0_active_ch_group
GAS LISTING C:\Users\marky\AppData\Local\Temp\ccDkf0tP.s 			page 2


  58              		.section	.text.decrease_emios0_active_ch_group,"axv",@progbits
  59              		.align 1
  60              		.p2align 4,,15
  61              		.globl decrease_emios0_active_ch_group
  62              		.type	decrease_emios0_active_ch_group, @function
  63              	decrease_emios0_active_ch_group:
  64              	.LFB8:
  65              		.loc 1 77 0
  66              		.cfi_startproc
  67              		.loc 1 78 0
  68 0000 70C0E000 		e_lis %r6,.LANCHOR0@ha
  69 0004 50E60000 		e_lwz %r7,.LANCHOR0@l(%r6)
  70 0008 18E784FF 		e_addi %r7,%r7,-1
  71 000c 54E60000 		e_stw %r7,.LANCHOR0@l(%r6)
  72 0010 0004     		se_blr
  73              		.cfi_endproc
  74              	.LFE8:
  75              		.size	decrease_emios0_active_ch_group, .-decrease_emios0_active_ch_group
  76              		.section	.text.pwm_active_emios0_clock,"axv",@progbits
  77              		.align 1
  78              		.p2align 4,,15
  79              		.globl pwm_active_emios0_clock
  80              		.type	pwm_active_emios0_clock, @function
  81              	pwm_active_emios0_clock:
  82              	.LFB9:
  83              		.loc 1 112 0
  84              		.cfi_startproc
  85              	.LVL0:
  86 0000 182106F0 		e_stwu %r1,-16(%r1)
  87              	.LCFI0:
  88              		.cfi_def_cfa_offset 16
  89 0004 0080     		se_mflr %r0
  90 0006 1BC10908 		e_stmw %r30,8(%r1)
  91              		.loc 1 114 0
  92 000a 70E0E000 		e_lis %r7,.LANCHOR0@ha
  93              		.loc 1 112 0
  94 000e D501     		se_stw %r0,20(%r1)
  95              		.cfi_offset 65, 4
  96              		.cfi_offset 30, -8
  97              		.cfi_offset 31, -4
  98              		.loc 1 114 0
  99 0010 53C70000 		e_lwz %r30,.LANCHOR0@l(%r7)
 100 0014 2A1E     		se_cmpi %r30,1
 101 0016 7A120010 		e_beq %cr0,.L8
 102              		.loc 1 128 0
 103 001a C501     		se_lwz %r0,20(%r1)
 104 001c 0090     		se_mtlr %r0
 105              		.cfi_remember_state
 106              		.cfi_restore 65
 107 001e 1BC10808 		e_lmw %r30,8(%r1)
 108 0022 20F1     		se_addi %r1,16
 109              	.LCFI1:
 110              		.cfi_restore 31
 111              		.cfi_restore 30
 112              		.cfi_def_cfa_offset 0
 113 0024 0004     		se_blr
 114              	.L8:
GAS LISTING C:\Users\marky\AppData\Local\Temp\ccDkf0tP.s 			page 3


 115              	.LCFI2:
 116              		.cfi_restore_state
 117 0026 013F     		se_mr %r31,%r3
 118              		.loc 1 115 0
 119 0028 4914     		se_li %r4,17
 120 002a 4C83     		se_li %r3,72
 121              	.LVL1:
 122 002c 78000001 		e_bl SPCSetPeripheralClockMode
 123              	.LVL2:
 124              		.loc 1 119 0
 125 0030 C27F     		se_lwz %r7,8(%r31)
 126 0032 4805     		se_li %r5,0
 127 0034 C067     		se_lwz %r6,0(%r7)
 128 0036 74A6D14A 		e_rlwimi %r6,%r5,26,5,5
 129 003a D067     		se_stw %r6,0(%r7)
 130              		.loc 1 120 0
 131 003c 70C20300 		e_li %r6,4864
 132 0040 C27F     		se_lwz %r7,8(%r31)
 133 0042 D067     		se_stw %r6,0(%r7)
 134              		.loc 1 121 0
 135 0044 C26F     		se_lwz %r6,8(%r31)
 136 0046 C076     		se_lwz %r7,0(%r6)
 137 0048 6457     		se_bseti %r7,5
 138 004a D076     		se_stw %r7,0(%r6)
 139              		.loc 1 123 0
 140 004c C27F     		se_lwz %r7,8(%r31)
 141 004e C067     		se_lwz %r6,0(%r7)
 142 0050 77C6E0C6 		e_rlwimi %r6,%r30,28,3,3
 143 0054 D067     		se_stw %r6,0(%r7)
 144              		.loc 1 125 0
 145 0056 2C06     		se_bmaski %r6,0
 146 0058 C27F     		se_lwz %r7,8(%r31)
 147 005a D367     		se_stw %r6,12(%r7)
 148              		.loc 1 128 0
 149 005c C501     		se_lwz %r0,20(%r1)
 150 005e 0090     		se_mtlr %r0
 151              		.cfi_restore 65
 152 0060 1BC10808 		e_lmw %r30,8(%r1)
 153              	.LVL3:
 154 0064 20F1     		se_addi %r1,16
 155              	.LCFI3:
 156              		.cfi_restore 30
 157              		.cfi_restore 31
 158              		.cfi_def_cfa_offset 0
 159 0066 0004     		se_blr
 160              		.cfi_endproc
 161              	.LFE9:
 162              		.size	pwm_active_emios0_clock, .-pwm_active_emios0_clock
 163              		.section	.text.pwm_deactive_emios0_clock,"axv",@progbits
 164              		.align 1
 165              		.p2align 4,,15
 166              		.globl pwm_deactive_emios0_clock
 167              		.type	pwm_deactive_emios0_clock, @function
 168              	pwm_deactive_emios0_clock:
 169              	.LFB10:
 170              		.loc 1 130 0
 171              		.cfi_startproc
GAS LISTING C:\Users\marky\AppData\Local\Temp\ccDkf0tP.s 			page 4


 172              	.LVL4:
 173              		.loc 1 132 0
 174 0000 70E0E000 		e_lis %r7,.LANCHOR0@ha
 175 0004 50E70000 		e_lwz %r7,.LANCHOR0@l(%r7)
 176 0008 2A07     		se_cmpi %r7,0
 177 000a 7A02000E 		e_bne %cr0,.L9
 178              		.loc 1 133 0
 179 000e C273     		se_lwz %r7,8(%r3)
 180 0010 C377     		se_lwz %r7,12(%r7)
 181 0012 2A07     		se_cmpi %r7,0
 182 0014 7A120006 		e_beq %cr0,.L11
 183              	.L9:
 184 0018 0004     		se_blr
 185              	.L11:
 186              		.loc 1 134 0
 187 001a 4C83     		se_li %r3,72
 188              	.LVL5:
 189 001c 4804     		se_li %r4,0
 190              		.loc 1 138 0
 191              		.loc 1 134 0
 192 001e 78000000 		e_b SPCSetPeripheralClockMode
 193              	.LVL6:
 194              		.cfi_endproc
 195              	.LFE10:
 196              		.size	pwm_deactive_emios0_clock, .-pwm_deactive_emios0_clock
 197              		.section	.text.reset_emios1_active_ch_group,"axv",@progbits
 198              		.align 1
 199              		.p2align 4,,15
 200              		.globl reset_emios1_active_ch_group
 201              		.type	reset_emios1_active_ch_group, @function
 202              	reset_emios1_active_ch_group:
 203              	.LFB11:
 204              		.loc 1 152 0
 205              		.cfi_startproc
 206              		.loc 1 153 0
 207 0000 4806     		se_li %r6,0
 208 0002 70E0E000 		e_lis %r7,.LANCHOR1@ha
 209 0006 54C70000 		e_stw %r6,.LANCHOR1@l(%r7)
 210 000a 0004     		se_blr
 211              		.cfi_endproc
 212              	.LFE11:
 213              		.size	reset_emios1_active_ch_group, .-reset_emios1_active_ch_group
 214              		.section	.text.get_emios1_active_ch_group,"axv",@progbits
 215              		.align 1
 216              		.p2align 4,,15
 217              		.globl get_emios1_active_ch_group
 218              		.type	get_emios1_active_ch_group, @function
 219              	get_emios1_active_ch_group:
 220              	.LFB12:
 221              		.loc 1 156 0
 222              		.cfi_startproc
 223              		.loc 1 157 0
 224 0000 70E0E000 		e_lis %r7,.LANCHOR1@ha
 225              		.loc 1 158 0
 226 0004 50670000 		e_lwz %r3,.LANCHOR1@l(%r7)
 227 0008 0004     		se_blr
 228              		.cfi_endproc
GAS LISTING C:\Users\marky\AppData\Local\Temp\ccDkf0tP.s 			page 5


 229              	.LFE12:
 230              		.size	get_emios1_active_ch_group, .-get_emios1_active_ch_group
 231              		.section	.text.increase_emios1_active_ch_group,"axv",@progbits
 232              		.align 1
 233              		.p2align 4,,15
 234              		.globl increase_emios1_active_ch_group
 235              		.type	increase_emios1_active_ch_group, @function
 236              	increase_emios1_active_ch_group:
 237              	.LFB13:
 238              		.loc 1 160 0
 239              		.cfi_startproc
 240              		.loc 1 161 0
 241 0000 70C0E000 		e_lis %r6,.LANCHOR1@ha
 242 0004 50E60000 		e_lwz %r7,.LANCHOR1@l(%r6)
 243 0008 2007     		se_addi %r7,1
 244 000a 54E60000 		e_stw %r7,.LANCHOR1@l(%r6)
 245 000e 0004     		se_blr
 246              		.cfi_endproc
 247              	.LFE13:
 248              		.size	increase_emios1_active_ch_group, .-increase_emios1_active_ch_group
 249              		.section	.text.decrease_emios1_active_ch_group,"axv",@progbits
 250              		.align 1
 251              		.p2align 4,,15
 252              		.globl decrease_emios1_active_ch_group
 253              		.type	decrease_emios1_active_ch_group, @function
 254              	decrease_emios1_active_ch_group:
 255              	.LFB14:
 256              		.loc 1 164 0
 257              		.cfi_startproc
 258              		.loc 1 165 0
 259 0000 70C0E000 		e_lis %r6,.LANCHOR1@ha
 260 0004 50E60000 		e_lwz %r7,.LANCHOR1@l(%r6)
 261 0008 18E784FF 		e_addi %r7,%r7,-1
 262 000c 54E60000 		e_stw %r7,.LANCHOR1@l(%r6)
 263 0010 0004     		se_blr
 264              		.cfi_endproc
 265              	.LFE14:
 266              		.size	decrease_emios1_active_ch_group, .-decrease_emios1_active_ch_group
 267              		.section	.text.pwm_active_emios1_clock,"axv",@progbits
 268              		.align 1
 269              		.p2align 4,,15
 270              		.globl pwm_active_emios1_clock
 271              		.type	pwm_active_emios1_clock, @function
 272              	pwm_active_emios1_clock:
 273              	.LFB15:
 274              		.loc 1 199 0
 275              		.cfi_startproc
 276              	.LVL7:
 277 0000 182106F0 		e_stwu %r1,-16(%r1)
 278              	.LCFI4:
 279              		.cfi_def_cfa_offset 16
 280 0004 0080     		se_mflr %r0
 281 0006 1BC10908 		e_stmw %r30,8(%r1)
 282              		.loc 1 201 0
 283 000a 70E0E000 		e_lis %r7,.LANCHOR1@ha
 284              		.loc 1 199 0
 285 000e D501     		se_stw %r0,20(%r1)
GAS LISTING C:\Users\marky\AppData\Local\Temp\ccDkf0tP.s 			page 6


 286              		.cfi_offset 65, 4
 287              		.cfi_offset 30, -8
 288              		.cfi_offset 31, -4
 289              		.loc 1 201 0
 290 0010 53C70000 		e_lwz %r30,.LANCHOR1@l(%r7)
 291 0014 2A1E     		se_cmpi %r30,1
 292 0016 7A120010 		e_beq %cr0,.L18
 293              		.loc 1 215 0
 294 001a C501     		se_lwz %r0,20(%r1)
 295 001c 0090     		se_mtlr %r0
 296              		.cfi_remember_state
 297              		.cfi_restore 65
 298 001e 1BC10808 		e_lmw %r30,8(%r1)
 299 0022 20F1     		se_addi %r1,16
 300              	.LCFI5:
 301              		.cfi_restore 31
 302              		.cfi_restore 30
 303              		.cfi_def_cfa_offset 0
 304 0024 0004     		se_blr
 305              	.L18:
 306              	.LCFI6:
 307              		.cfi_restore_state
 308 0026 013F     		se_mr %r31,%r3
 309              		.loc 1 202 0
 310 0028 4914     		se_li %r4,17
 311 002a 4C93     		se_li %r3,73
 312              	.LVL8:
 313 002c 78000001 		e_bl SPCSetPeripheralClockMode
 314              	.LVL9:
 315              		.loc 1 206 0
 316 0030 C27F     		se_lwz %r7,8(%r31)
 317 0032 4805     		se_li %r5,0
 318 0034 C067     		se_lwz %r6,0(%r7)
 319 0036 74A6D14A 		e_rlwimi %r6,%r5,26,5,5
 320 003a D067     		se_stw %r6,0(%r7)
 321              		.loc 1 207 0
 322 003c 70C20300 		e_li %r6,4864
 323 0040 C27F     		se_lwz %r7,8(%r31)
 324 0042 D067     		se_stw %r6,0(%r7)
 325              		.loc 1 208 0
 326 0044 C26F     		se_lwz %r6,8(%r31)
 327 0046 C076     		se_lwz %r7,0(%r6)
 328 0048 6457     		se_bseti %r7,5
 329 004a D076     		se_stw %r7,0(%r6)
 330              		.loc 1 210 0
 331 004c C27F     		se_lwz %r7,8(%r31)
 332 004e C067     		se_lwz %r6,0(%r7)
 333 0050 77C6E0C6 		e_rlwimi %r6,%r30,28,3,3
 334 0054 D067     		se_stw %r6,0(%r7)
 335              		.loc 1 212 0
 336 0056 2C06     		se_bmaski %r6,0
 337 0058 C27F     		se_lwz %r7,8(%r31)
 338 005a D367     		se_stw %r6,12(%r7)
 339              		.loc 1 215 0
 340 005c C501     		se_lwz %r0,20(%r1)
 341 005e 0090     		se_mtlr %r0
 342              		.cfi_restore 65
GAS LISTING C:\Users\marky\AppData\Local\Temp\ccDkf0tP.s 			page 7


 343 0060 1BC10808 		e_lmw %r30,8(%r1)
 344              	.LVL10:
 345 0064 20F1     		se_addi %r1,16
 346              	.LCFI7:
 347              		.cfi_restore 30
 348              		.cfi_restore 31
 349              		.cfi_def_cfa_offset 0
 350 0066 0004     		se_blr
 351              		.cfi_endproc
 352              	.LFE15:
 353              		.size	pwm_active_emios1_clock, .-pwm_active_emios1_clock
 354              		.section	.text.pwm_deactive_emios1_clock,"axv",@progbits
 355              		.align 1
 356              		.p2align 4,,15
 357              		.globl pwm_deactive_emios1_clock
 358              		.type	pwm_deactive_emios1_clock, @function
 359              	pwm_deactive_emios1_clock:
 360              	.LFB16:
 361              		.loc 1 217 0
 362              		.cfi_startproc
 363              	.LVL11:
 364              		.loc 1 219 0
 365 0000 70E0E000 		e_lis %r7,.LANCHOR1@ha
 366 0004 50E70000 		e_lwz %r7,.LANCHOR1@l(%r7)
 367 0008 2A07     		se_cmpi %r7,0
 368 000a 7A02000E 		e_bne %cr0,.L19
 369              		.loc 1 220 0
 370 000e C273     		se_lwz %r7,8(%r3)
 371 0010 C377     		se_lwz %r7,12(%r7)
 372 0012 2A07     		se_cmpi %r7,0
 373 0014 7A120006 		e_beq %cr0,.L21
 374              	.L19:
 375 0018 0004     		se_blr
 376              	.L21:
 377              		.loc 1 221 0
 378 001a 4C93     		se_li %r3,73
 379              	.LVL12:
 380 001c 4804     		se_li %r4,0
 381              		.loc 1 225 0
 382              		.loc 1 221 0
 383 001e 78000000 		e_b SPCSetPeripheralClockMode
 384              	.LVL13:
 385              		.cfi_endproc
 386              	.LFE16:
 387              		.size	pwm_deactive_emios1_clock, .-pwm_deactive_emios1_clock
 388              		.section	.text.vector152,"axv",@progbits
 389              		.align 1
 390              		.p2align 4,,15
 391              		.globl vector152
 392              		.type	vector152, @function
 393              	vector152:
 394              	.LFB17:
 395              		.loc 1 724 0
 396              		.cfi_startproc
 397              	.LVL14:
 398              	.LBB4:
 399              	.LBB5:
GAS LISTING C:\Users\marky\AppData\Local\Temp\ccDkf0tP.s 			page 8


 400              		.loc 1 61 0
 401 0000 70F8E3FA 		e_lis %r7,0xc3fa
 402 0004 C177     		se_lwz %r7,4(%r7)
 403              	.LBE5:
 404              	.LBE4:
 405              		.loc 1 743 0
 406 0006 6687     		se_btsti %r7,8
 407 0008 7A020006 		e_bne %cr0,.L24
 408 000c 0004     		se_blr
 409              	.L24:
 410              		.loc 1 745 0
 411 000e 7060E000 		e_lis %r3,PWMD1@ha
 412 0012 4974     		se_li %r4,23
 413 0014 1C630000 		e_la %r3,PWMD1@l(%r3)
 414              		.loc 1 752 0
 415              		.loc 1 745 0
 416 0018 78000000 		e_b pwm_lld_serve_period_interrupt
 417              	.LVL15:
 418              		.cfi_endproc
 419              	.LFE17:
 420              		.size	vector152, .-vector152
 421              		.section	.bss.emios1_active_ch_group,"aw",@nobits
 422              		.align 2
 423              		.set	.LANCHOR1,. + 0
 424              		.type	emios1_active_ch_group, @object
 425              		.size	emios1_active_ch_group, 4
 426              	emios1_active_ch_group:
 427 0000 00000000 		.zero	4
 428              		.section	.bss.emios0_active_ch_group,"aw",@nobits
 429              		.align 2
 430              		.set	.LANCHOR0,. + 0
 431              		.type	emios0_active_ch_group, @object
 432              		.size	emios0_active_ch_group, 4
 433              	emios0_active_ch_group:
 434 0000 00000000 		.zero	4
 435              		.section	".text","axv"
 436              	.Letext0:
 437              		.file 2 "c:\\spc5studio\\eclipse\\plugins\\com.st.tools.spc5.tools.gnu.gcc.ppcvle.win32_4.9.4.2018
 438              		.file 3 "c:\\spc5studio\\eclipse\\plugins\\com.st.tools.spc5.tools.gnu.gcc.ppcvle.win32_4.9.4.2018
 439              		.file 4 "./components/spc560bxx_platform_component_rla/lib/include/typedefs.h"
 440              		.file 5 "./components/spc560bxx_platform_component_rla/lib/include/xpc560b.h"
 441              		.file 6 "./components/spc560bxx_low_level_drivers_component_rla/lib/include/pwm_lld.h"
 442              		.file 7 "./components/spc560bxx_clock_component_rla/lib/include/clock.h"