GAS LISTING C:\Users\marky\AppData\Local\Temp\cc4VHMFj.s 			page 1


   1              		.file	"stream_buffer.c"
   2              		.section	".text","axv"
   3              	.Ltext0:
   4              		.cfi_sections	.debug_frame
   5              		.section	.text.prvWriteBytesToBuffer,"axv",@progbits
   6              		.align 1
   7              		.p2align 4,,15
   8              		.type	prvWriteBytesToBuffer, @function
   9              	prvWriteBytesToBuffer:
  10              	.LFB17:
  11              		.file 1 "./components/spc5_freertos_component_rla/lib/src/stream_buffer.c"
  12              		.loc 1 1089 0
  13              		.cfi_startproc
  14              	.LVL0:
  15 0000 182106E0 		e_stwu %r1,-32(%r1)
  16              	.LCFI0:
  17              		.cfi_def_cfa_offset 32
  18 0004 0080     		se_mflr %r0
  19 0006 1B61090C 		e_stmw %r27,12(%r1)
  20 000a D901     		se_stw %r0,36(%r1)
  21              		.cfi_offset 65, 4
  22              		.cfi_offset 27, -20
  23              		.cfi_offset 28, -16
  24              		.cfi_offset 29, -12
  25              		.cfi_offset 30, -8
  26              		.cfi_offset 31, -4
  27              		.loc 1 1089 0
  28 000c 015C     		se_mr %r28,%r5
  29              		.loc 1 1094 0
  30 000e C1F3     		se_lwz %r31,4(%r3)
  31              	.LVL1:
  32              		.loc 1 1099 0
  33 0010 C2E3     		se_lwz %r30,8(%r3)
  34              		.loc 1 1089 0
  35 0012 013D     		se_mr %r29,%r3
  36              		.loc 1 1099 0
  37 0014 7CFFF050 		subf %r7, %r31, %r30
  38              		.loc 1 1103 0
  39 0018 C633     		se_lwz %r3,24(%r3)
  40              	.LVL2:
  41              		.loc 1 1099 0
  42 001a 0D75     		se_cmpl %r5,%r7
  43              		.loc 1 1089 0
  44 001c 014B     		se_mr %r27,%r4
  45              		.loc 1 1099 0
  46 001e 7FC7285E 		isel %r30,%r7,%r5,1
  47              	.LVL3:
  48              		.loc 1 1103 0
  49 0022 04F3     		se_add %r3,%r31
  50 0024 01E5     		se_mr %r5,%r30
  51              	.LVL4:
  52 0026 78000001 		e_bl memcpy
  53              	.LVL5:
  54              		.loc 1 1107 0
  55 002a 0DEC     		se_cmpl %r28,%r30
  56 002c 7A110022 		e_bgt %cr0,.L5
  57              		.loc 1 1131 0
GAS LISTING C:\Users\marky\AppData\Local\Temp\cc4VHMFj.s 			page 2


  58 0030 C901     		se_lwz %r0,36(%r1)
  59 0032 0090     		se_mtlr %r0
  60              		.cfi_remember_state
  61              		.cfi_restore 65
  62              		.loc 1 1118 0
  63 0034 7CFCFA14 		add %r7,%r28,%r31
  64              	.LVL6:
  65              		.loc 1 1119 0
  66 0038 C26D     		se_lwz %r6,8(%r29)
  67              		.loc 1 1131 0
  68 003a 01C3     		se_mr %r3,%r28
  69              		.loc 1 1119 0
  70 003c 0D67     		se_cmpl %r7,%r6
  71              		.loc 1 1121 0
  72 003e 0776     		se_subf %r6, %r7
  73 0040 7CE7301E 		isel %r7,%r7,%r6,0
  74              	.LVL7:
  75              		.loc 1 1128 0
  76 0044 D17D     		se_stw %r7,4(%r29)
  77              		.loc 1 1131 0
  78 0046 1B61080C 		e_lmw %r27,12(%r1)
  79              	.LVL8:
  80 004a 21F1     		se_addi %r1,32
  81              	.LCFI1:
  82              		.cfi_restore 31
  83              		.cfi_restore 30
  84              		.cfi_restore 29
  85              		.cfi_restore 28
  86              		.cfi_restore 27
  87              		.cfi_def_cfa_offset 0
  88 004c 0004     		se_blr
  89              	.LVL9:
  90              	.L5:
  91              	.LCFI2:
  92              		.cfi_restore_state
  93              		.loc 1 1111 0
  94 004e C63D     		se_lwz %r3,24(%r29)
  95 0050 7C9BF214 		add %r4,%r27,%r30
  96 0054 7CBEE050 		subf %r5, %r30, %r28
  97 0058 78000001 		e_bl memcpy
  98              	.LVL10:
  99              		.loc 1 1131 0
 100 005c C901     		se_lwz %r0,36(%r1)
 101 005e 0090     		se_mtlr %r0
 102              		.cfi_restore 65
 103              		.loc 1 1118 0
 104 0060 7CFCFA14 		add %r7,%r28,%r31
 105              	.LVL11:
 106              		.loc 1 1119 0
 107 0064 C26D     		se_lwz %r6,8(%r29)
 108              		.loc 1 1131 0
 109 0066 01C3     		se_mr %r3,%r28
 110              		.loc 1 1119 0
 111 0068 0D67     		se_cmpl %r7,%r6
 112              		.loc 1 1121 0
 113 006a 0776     		se_subf %r6, %r7
 114 006c 7CE7301E 		isel %r7,%r7,%r6,0
GAS LISTING C:\Users\marky\AppData\Local\Temp\cc4VHMFj.s 			page 3


 115              	.LVL12:
 116              		.loc 1 1128 0
 117 0070 D17D     		se_stw %r7,4(%r29)
 118              		.loc 1 1131 0
 119 0072 1B61080C 		e_lmw %r27,12(%r1)
 120              	.LVL13:
 121 0076 21F1     		se_addi %r1,32
 122              	.LCFI3:
 123              		.cfi_restore 27
 124              		.cfi_restore 28
 125              		.cfi_restore 29
 126              		.cfi_restore 30
 127              		.cfi_restore 31
 128              		.cfi_def_cfa_offset 0
 129 0078 0004     		se_blr
 130              		.cfi_endproc
 131              	.LFE17:
 132              		.size	prvWriteBytesToBuffer, .-prvWriteBytesToBuffer
 133              		.section	.text.prvWriteMessageToBuffer,"axv",@progbits
 134              		.align 1
 135              		.p2align 4,,15
 136              		.type	prvWriteMessageToBuffer, @function
 137              	prvWriteMessageToBuffer:
 138              	.LFB8:
 139              		.loc 1 666 0
 140              		.cfi_startproc
 141              	.LVL14:
 142 0000 182106E8 		e_stwu %r1,-24(%r1)
 143              	.LCFI4:
 144              		.cfi_def_cfa_offset 24
 145 0004 0080     		se_mflr %r0
 146 0006 1BC10910 		e_stmw %r30,16(%r1)
 147 000a D701     		se_stw %r0,28(%r1)
 148              		.cfi_offset 65, 4
 149              		.cfi_offset 30, -8
 150              		.cfi_offset 31, -4
 151              		.loc 1 666 0
 152 000c D251     		se_stw %r5,8(%r1)
 153              		.loc 1 706 0
 154 000e 71600000 		e_li %r11,0
 155              		.loc 1 670 0
 156 0012 2A06     		se_cmpi %r6,0
 157 0014 7A120024 		e_beq %cr0,.L12
 158 0018 014E     		se_mr %r30,%r4
 159 001a 013F     		se_mr %r31,%r3
 160              		.loc 1 676 0
 161 001c 3083001C 		e_lbz %r4,28(%r3)
 162              	.LVL15:
 163 0020 67F4     		se_btsti %r4,31
 164 0022 7A020024 		e_bne %cr0,.L8
 165              	.LVL16:
 166              		.loc 1 682 0
 167 0026 0D56     		se_cmpl %r6,%r5
 168 0028 7CA5305E 		isel %r5,%r5,%r6,1
 169              	.LVL17:
 170 002c D251     		se_stw %r5,8(%r1)
 171              	.LVL18:
GAS LISTING C:\Users\marky\AppData\Local\Temp\cc4VHMFj.s 			page 4


 172              	.L9:
 173              		.loc 1 702 0
 174 002e 01F3     		se_mr %r3,%r31
 175 0030 01E4     		se_mr %r4,%r30
 176 0032 78000001 		e_bl prvWriteBytesToBuffer
 177              	.LVL19:
 178 0036 0233     		se_mtar %r11,%r3
 179              	.LVL20:
 180              	.L12:
 181              		.loc 1 710 0
 182 0038 C701     		se_lwz %r0,28(%r1)
 183 003a 0090     		se_mtlr %r0
 184              		.cfi_remember_state
 185              		.cfi_restore 65
 186 003c 1BC10810 		e_lmw %r30,16(%r1)
 187 0040 0333     		se_mfar %r3,%r11
 188 0042 2171     		se_addi %r1,24
 189              	.LCFI5:
 190              		.cfi_restore 31
 191              		.cfi_restore 30
 192              		.cfi_def_cfa_offset 0
 193 0044 0004     		se_blr
 194              	.LVL21:
 195              	.L8:
 196              	.LCFI6:
 197              		.cfi_restore_state
 198              		.loc 1 684 0
 199 0046 0D76     		se_cmpl %r6,%r7
 200 0048 7A10FFF0 		e_blt %cr0,.L12
 201              	.LVL22:
 202              		.loc 1 691 0
 203 004c 4845     		se_li %r5,4
 204              	.LVL23:
 205 004e 18818008 		e_addi %r4,%r1,8
 206              	.LVL24:
 207 0052 78000001 		e_bl prvWriteBytesToBuffer
 208              	.LVL25:
 209 0056 C251     		se_lwz %r5,8(%r1)
 210 0058 79FFFFD6 		e_b .L9
 211              		.cfi_endproc
 212              	.LFE8:
 213              		.size	prvWriteMessageToBuffer, .-prvWriteMessageToBuffer
 214              		.section	.text.prvReadBytesFromBuffer,"axv",@progbits
 215              		.align 1
 216              		.p2align 4,,15
 217              		.type	prvReadBytesFromBuffer, @function
 218              	prvReadBytesFromBuffer:
 219              	.LFB18:
 220              		.loc 1 1135 0
 221              		.cfi_startproc
 222              	.LVL26:
 223 0000 182106E8 		e_stwu %r1,-24(%r1)
 224              	.LCFI7:
 225              		.cfi_def_cfa_offset 24
 226              		.loc 1 1139 0
 227 0004 0D65     		se_cmpl %r5,%r6
 228              		.loc 1 1135 0
GAS LISTING C:\Users\marky\AppData\Local\Temp\cc4VHMFj.s 			page 5


 229 0006 0080     		se_mflr %r0
 230 0008 1B810908 		e_stmw %r28,8(%r1)
 231 000c D701     		se_stw %r0,28(%r1)
 232              		.cfi_offset 65, 4
 233              		.cfi_offset 28, -16
 234              		.cfi_offset 29, -12
 235              		.cfi_offset 30, -8
 236              		.cfi_offset 31, -4
 237              		.loc 1 1139 0
 238 000e 7FE6285E 		isel %r31,%r6,%r5,1
 239              	.LVL27:
 240              		.loc 1 1141 0
 241 0012 2A0F     		se_cmpi %r31,0
 242 0014 7A020012 		e_bne %cr0,.L17
 243              		.loc 1 1186 0
 244 0018 C701     		se_lwz %r0,28(%r1)
 245 001a 0090     		se_mtlr %r0
 246              		.cfi_remember_state
 247              		.cfi_restore 65
 248 001c 01F3     		se_mr %r3,%r31
 249              	.LVL28:
 250 001e 1B810808 		e_lmw %r28,8(%r1)
 251              	.LVL29:
 252 0022 2171     		se_addi %r1,24
 253              	.LCFI8:
 254              		.cfi_restore 31
 255              		.cfi_restore 30
 256              		.cfi_restore 29
 257              		.cfi_restore 28
 258              		.cfi_def_cfa_offset 0
 259 0024 0004     		se_blr
 260              	.LVL30:
 261              	.L17:
 262              	.LCFI9:
 263              		.cfi_restore_state
 264              		.loc 1 1143 0
 265 0026 C0E3     		se_lwz %r30,0(%r3)
 266              	.LVL31:
 267              		.loc 1 1148 0
 268 0028 C2C3     		se_lwz %r28,8(%r3)
 269 002a 0146     		se_mr %r6,%r4
 270              	.LVL32:
 271 002c 7CFEE050 		subf %r7, %r30, %r28
 272              		.loc 1 1154 0
 273 0030 C643     		se_lwz %r4,24(%r3)
 274              	.LVL33:
 275              		.loc 1 1148 0
 276 0032 0D7F     		se_cmpl %r31,%r7
 277 0034 013D     		se_mr %r29,%r3
 278 0036 7F87F85E 		isel %r28,%r7,%r31,1
 279              	.LVL34:
 280              		.loc 1 1154 0
 281 003a 0163     		se_mr %r3,%r6
 282              	.LVL35:
 283 003c 04E4     		se_add %r4,%r30
 284 003e 01C5     		se_mr %r5,%r28
 285              	.LVL36:
GAS LISTING C:\Users\marky\AppData\Local\Temp\cc4VHMFj.s 			page 6


 286 0040 78000001 		e_bl memcpy
 287              	.LVL37:
 288              		.loc 1 1158 0
 289 0044 0DCF     		se_cmpl %r31,%r28
 290 0046 7A110022 		e_bgt %cr0,.L18
 291              	.L15:
 292              		.loc 1 1186 0
 293 004a C701     		se_lwz %r0,28(%r1)
 294 004c 0090     		se_mtlr %r0
 295              		.cfi_remember_state
 296              		.cfi_restore 65
 297              		.loc 1 1171 0
 298 004e 7CFFF214 		add %r7,%r31,%r30
 299              	.LVL38:
 300              		.loc 1 1173 0
 301 0052 C26D     		se_lwz %r6,8(%r29)
 302              		.loc 1 1186 0
 303 0054 01F3     		se_mr %r3,%r31
 304              		.loc 1 1173 0
 305 0056 0D67     		se_cmpl %r7,%r6
 306              		.loc 1 1175 0
 307 0058 0776     		se_subf %r6, %r7
 308 005a 7CE7301E 		isel %r7,%r7,%r6,0
 309              	.LVL39:
 310              		.loc 1 1178 0
 311 005e D07D     		se_stw %r7,0(%r29)
 312              		.loc 1 1186 0
 313 0060 1B810808 		e_lmw %r28,8(%r1)
 314              	.LVL40:
 315 0064 2171     		se_addi %r1,24
 316              	.LCFI10:
 317              		.cfi_restore 28
 318              		.cfi_restore 29
 319              		.cfi_restore 30
 320              		.cfi_restore 31
 321              		.cfi_def_cfa_offset 0
 322 0066 0004     		se_blr
 323              	.LVL41:
 324              	.L18:
 325              	.LCFI11:
 326              		.cfi_restore_state
 327              		.loc 1 1162 0
 328 0068 04C3     		se_add %r3,%r28
 329 006a C64D     		se_lwz %r4,24(%r29)
 330 006c 7CBCF850 		subf %r5, %r28, %r31
 331 0070 78000001 		e_bl memcpy
 332              	.LVL42:
 333 0074 79FFFFD6 		e_b .L15
 334              		.cfi_endproc
 335              	.LFE18:
 336              		.size	prvReadBytesFromBuffer, .-prvReadBytesFromBuffer
 337              		.section	.text.xStreamBufferGenericCreate,"axv",@progbits
 338              		.align 1
 339              		.p2align 4,,15
 340              		.globl xStreamBufferGenericCreate
 341              		.type	xStreamBufferGenericCreate, @function
 342              	xStreamBufferGenericCreate:
GAS LISTING C:\Users\marky\AppData\Local\Temp\cc4VHMFj.s 			page 7


 343              	.LFB0:
 344              		.loc 1 220 0
 345              		.cfi_startproc
 346              	.LVL43:
 347 0000 182106E8 		e_stwu %r1,-24(%r1)
 348              	.LCFI12:
 349              		.cfi_def_cfa_offset 24
 350 0004 0080     		se_mflr %r0
 351 0006 1B810908 		e_stmw %r28,8(%r1)
 352              		.loc 1 246 0
 353 000a 4817     		se_li %r7,1
 354              		.cfi_register 65, 0
 355              		.cfi_offset 28, -16
 356              		.cfi_offset 29, -12
 357              		.cfi_offset 30, -8
 358              		.cfi_offset 31, -4
 359              		.loc 1 231 0
 360 000c 18BFE001 		e_xori %r31,%r5,1
 361              		.loc 1 244 0
 362 0010 014D     		se_mr %r29,%r4
 363              		.loc 1 220 0
 364 0012 D701     		se_stw %r0,28(%r1)
 365              		.cfi_offset 65, 4
 366              		.loc 1 244 0
 367 0014 2A0D     		se_cmpi %r29,0
 368              		.loc 1 231 0
 369 0016 7FFF0034 		cntlzw %r31,%r31
 370              		.loc 1 246 0
 371 001a 7FA7E89E 		isel %r29,%r7,%r29,2
 372              		.loc 1 257 0
 373 001e 1B838001 		e_addi %r28,%r3,1
 374              		.loc 1 228 0
 375 0022 480E     		se_li %r30,0
 376              		.loc 1 258 0
 377 0024 18638021 		e_addi %r3,%r3,33
 378              	.LVL44:
 379              		.loc 1 231 0
 380 0028 685F     		se_srwi %r31,5
 381              	.LVL45:
 382              		.loc 1 258 0
 383 002a 78000001 		e_bl pvPortMalloc
 384              	.LVL46:
 385              		.loc 1 260 0
 386 002e 2A03     		se_cmpi %r3,0
 387 0030 7A12001C 		e_beq %cr0,.L21
 388              	.LVL47:
 389              	.LBB32:
 390              	.LBB33:
 391              		.loc 1 1228 0
 392 0034 D7E3     		se_stw %r30,28(%r3)
 393              	.LBE33:
 394              	.LBE32:
 395              		.loc 1 262 0
 396 0036 18E38020 		e_addi %r7,%r3,32
 397              	.LVL48:
 398              	.LBB35:
 399              	.LBB34:
GAS LISTING C:\Users\marky\AppData\Local\Temp\cc4VHMFj.s 			page 8


 400              		.loc 1 1228 0
 401 003a D0E3     		se_stw %r30,0(%r3)
 402 003c D1E3     		se_stw %r30,4(%r3)
 403 003e D4E3     		se_stw %r30,16(%r3)
 404 0040 D5E3     		se_stw %r30,20(%r3)
 405              		.loc 1 1229 0
 406 0042 D673     		se_stw %r7,24(%r3)
 407              		.loc 1 1230 0
 408 0044 D2C3     		se_stw %r28,8(%r3)
 409              		.loc 1 1231 0
 410 0046 D3D3     		se_stw %r29,12(%r3)
 411              		.loc 1 1232 0
 412 0048 37E3001C 		e_stb %r31,28(%r3)
 413              	.LVL49:
 414              	.L21:
 415              	.LBE34:
 416              	.LBE35:
 417              		.loc 1 276 0
 418 004c C701     		se_lwz %r0,28(%r1)
 419 004e 0090     		se_mtlr %r0
 420              		.cfi_restore 65
 421 0050 1B810808 		e_lmw %r28,8(%r1)
 422              	.LVL50:
 423 0054 2171     		se_addi %r1,24
 424              	.LCFI13:
 425              		.cfi_restore 31
 426              		.cfi_restore 30
 427              		.cfi_restore 29
 428              		.cfi_restore 28
 429              		.cfi_def_cfa_offset 0
 430 0056 0004     		se_blr
 431              		.cfi_endproc
 432              	.LFE0:
 433              		.size	xStreamBufferGenericCreate, .-xStreamBufferGenericCreate
 434              		.section	.text.vStreamBufferDelete,"axv",@progbits
 435              		.align 1
 436              		.p2align 4,,15
 437              		.globl vStreamBufferDelete
 438              		.type	vStreamBufferDelete, @function
 439              	vStreamBufferDelete:
 440              	.LFB1:
 441              		.loc 1 360 0
 442              		.cfi_startproc
 443              	.LVL51:
 444              		.loc 1 367 0
 445 0000 30C3001C 		e_lbz %r6,28(%r3)
 446 0004 67E6     		se_btsti %r6,30
 447 0006 7A120018 		e_beq %cr0,.L24
 448              		.loc 1 387 0
 449 000a 4806     		se_li %r6,0
 450 000c D063     		se_stw %r6,0(%r3)
 451 000e D163     		se_stw %r6,4(%r3)
 452 0010 D263     		se_stw %r6,8(%r3)
 453 0012 D363     		se_stw %r6,12(%r3)
 454 0014 D463     		se_stw %r6,16(%r3)
 455 0016 D563     		se_stw %r6,20(%r3)
 456 0018 D663     		se_stw %r6,24(%r3)
GAS LISTING C:\Users\marky\AppData\Local\Temp\cc4VHMFj.s 			page 9


 457 001a D763     		se_stw %r6,28(%r3)
 458 001c 0004     		se_blr
 459              	.L24:
 460              		.loc 1 389 0
 461              		.loc 1 373 0
 462 001e 78000000 		e_b vPortFree
 463              	.LVL52:
 464              		.cfi_endproc
 465              	.LFE1:
 466              		.size	vStreamBufferDelete, .-vStreamBufferDelete
 467              		.section	.text.xStreamBufferReset,"axv",@progbits
 468              		.align 1
 469              		.p2align 4,,15
 470              		.globl xStreamBufferReset
 471              		.type	xStreamBufferReset, @function
 472              	xStreamBufferReset:
 473              	.LFB2:
 474              		.loc 1 393 0
 475              		.cfi_startproc
 476              	.LVL53:
 477 0000 182106F0 		e_stwu %r1,-16(%r1)
 478              	.LCFI14:
 479              		.cfi_def_cfa_offset 16
 480 0004 0080     		se_mflr %r0
 481 0006 1BC10908 		e_stmw %r30,8(%r1)
 482 000a D501     		se_stw %r0,20(%r1)
 483              		.cfi_offset 65, 4
 484              		.cfi_offset 30, -8
 485              		.cfi_offset 31, -4
 486              		.loc 1 393 0
 487 000c 013F     		se_mr %r31,%r3
 488              	.LVL54:
 489              		.loc 1 395 0
 490 000e 480E     		se_li %r30,0
 491              		.loc 1 412 0
 492 0010 78000001 		e_bl vTaskEnterCritical
 493              	.LVL55:
 494              		.loc 1 414 0
 495 0014 C47F     		se_lwz %r7,16(%r31)
 496 0016 2A07     		se_cmpi %r7,0
 497 0018 7A120016 		e_beq %cr0,.L29
 498              	.LVL56:
 499              	.L26:
 500              		.loc 1 435 0
 501 001c 78000001 		e_bl vTaskExitCritical
 502              	.LVL57:
 503              		.loc 1 438 0
 504 0020 C501     		se_lwz %r0,20(%r1)
 505 0022 0090     		se_mtlr %r0
 506              		.cfi_remember_state
 507              		.cfi_restore 65
 508 0024 01E3     		se_mr %r3,%r30
 509 0026 1BC10808 		e_lmw %r30,8(%r1)
 510              	.LVL58:
 511 002a 20F1     		se_addi %r1,16
 512              	.LCFI15:
 513              		.cfi_restore 31
GAS LISTING C:\Users\marky\AppData\Local\Temp\cc4VHMFj.s 			page 10


 514              		.cfi_restore 30
 515              		.cfi_def_cfa_offset 0
 516 002c 0004     		se_blr
 517              	.LVL59:
 518              	.L29:
 519              	.LCFI16:
 520              		.cfi_restore_state
 521              		.loc 1 416 0
 522 002e C57F     		se_lwz %r7,20(%r31)
 523 0030 2A07     		se_cmpi %r7,0
 524 0032 7A02FFEA 		e_bne %cr0,.L26
 525              		.loc 1 418 0
 526 0036 30FF001C 		e_lbz %r7,28(%r31)
 527              	.LVL60:
 528              	.LBB36:
 529              	.LBB37:
 530              		.loc 1 1228 0
 531 003a D0EF     		se_stw %r30,0(%r31)
 532 003c D7EF     		se_stw %r30,28(%r31)
 533              	.LVL61:
 534 003e D1EF     		se_stw %r30,4(%r31)
 535 0040 D4EF     		se_stw %r30,16(%r31)
 536 0042 D5EF     		se_stw %r30,20(%r31)
 537              		.loc 1 1232 0
 538 0044 34FF001C 		e_stb %r7,28(%r31)
 539              	.LVL62:
 540              	.LBE37:
 541              	.LBE36:
 542              		.loc 1 423 0
 543 0048 481E     		se_li %r30,1
 544 004a 79FFFFD2 		e_b .L26
 545              		.cfi_endproc
 546              	.LFE2:
 547              		.size	xStreamBufferReset, .-xStreamBufferReset
 548              		.section	.text.xStreamBufferSetTriggerLevel,"axv",@progbits
 549              		.align 1
 550              		.p2align 4,,15
 551              		.globl xStreamBufferSetTriggerLevel
 552              		.type	xStreamBufferSetTriggerLevel, @function
 553              	xStreamBufferSetTriggerLevel:
 554              	.LFB3:
 555              		.loc 1 442 0
 556              		.cfi_startproc
 557              	.LVL63:
 558              		.loc 1 449 0
 559 0000 2A04     		se_cmpi %r4,0
 560              		.loc 1 451 0
 561 0002 4816     		se_li %r6,1
 562              		.loc 1 456 0
 563 0004 C273     		se_lwz %r7,8(%r3)
 564              		.loc 1 451 0
 565 0006 7C86209E 		isel %r4,%r6,%r4,2
 566              	.LVL64:
 567              		.loc 1 463 0
 568 000a 4806     		se_li %r6,0
 569              		.loc 1 456 0
 570 000c 0D74     		se_cmpl %r4,%r7
GAS LISTING C:\Users\marky\AppData\Local\Temp\cc4VHMFj.s 			page 11


 571 000e 7A110008 		e_bgt %cr0,.L32
 572              		.loc 1 458 0
 573 0012 D343     		se_stw %r4,12(%r3)
 574              	.LVL65:
 575              		.loc 1 459 0
 576 0014 4816     		se_li %r6,1
 577              	.LVL66:
 578              	.L32:
 579              		.loc 1 467 0
 580 0016 0163     		se_mr %r3,%r6
 581              	.LVL67:
 582 0018 0004     		se_blr
 583              		.cfi_endproc
 584              	.LFE3:
 585              		.size	xStreamBufferSetTriggerLevel, .-xStreamBufferSetTriggerLevel
 586              		.section	.text.xStreamBufferSpacesAvailable,"axv",@progbits
 587              		.align 1
 588              		.p2align 4,,15
 589              		.globl xStreamBufferSpacesAvailable
 590              		.type	xStreamBufferSpacesAvailable, @function
 591              	xStreamBufferSpacesAvailable:
 592              	.LFB4:
 593              		.loc 1 471 0
 594              		.cfi_startproc
 595              	.LVL68:
 596              		.loc 1 477 0
 597 0000 C263     		se_lwz %r6,8(%r3)
 598 0002 C073     		se_lwz %r7,0(%r3)
 599              	.LVL69:
 600              		.loc 1 478 0
 601 0004 C133     		se_lwz %r3,4(%r3)
 602              	.LVL70:
 603              		.loc 1 477 0
 604 0006 7CE63A14 		add %r7,%r6,%r7
 605              	.LVL71:
 606 000a 18E784FF 		e_addi %r7,%r7,-1
 607              	.LVL72:
 608              		.loc 1 479 0
 609 000e 0637     		se_sub %r7, %r3
 610              	.LVL73:
 611              		.loc 1 481 0
 612 0010 0D76     		se_cmpl %r6,%r7
 613              		.loc 1 483 0
 614 0012 7C663850 		subf %r3, %r6, %r7
 615              	.LVL74:
 616              		.loc 1 491 0
 617 0016 7C67185E 		isel %r3,%r7,%r3,1
 618              	.LVL75:
 619 001a 0004     		se_blr
 620              		.cfi_endproc
 621              	.LFE4:
 622              		.size	xStreamBufferSpacesAvailable, .-xStreamBufferSpacesAvailable
 623              		.section	.text.xStreamBufferBytesAvailable,"axv",@progbits
 624              		.align 1
 625              		.p2align 4,,15
 626              		.globl xStreamBufferBytesAvailable
 627              		.type	xStreamBufferBytesAvailable, @function
GAS LISTING C:\Users\marky\AppData\Local\Temp\cc4VHMFj.s 			page 12


 628              	xStreamBufferBytesAvailable:
 629              	.LFB5:
 630              		.loc 1 495 0
 631              		.cfi_startproc
 632              	.LVL76:
 633              	.LBB38:
 634              	.LBB39:
 635              		.loc 1 1194 0
 636 0000 C263     		se_lwz %r6,8(%r3)
 637 0002 C173     		se_lwz %r7,4(%r3)
 638              	.LVL77:
 639              		.loc 1 1195 0
 640 0004 C033     		se_lwz %r3,0(%r3)
 641              	.LVL78:
 642              		.loc 1 1194 0
 643 0006 0467     		se_add %r7,%r6
 644              	.LVL79:
 645              		.loc 1 1195 0
 646 0008 0637     		se_sub %r7, %r3
 647              	.LVL80:
 648              		.loc 1 1196 0
 649 000a 0D76     		se_cmpl %r6,%r7
 650              		.loc 1 1198 0
 651 000c 7C663850 		subf %r3, %r6, %r7
 652              	.LVL81:
 653              	.LBE39:
 654              	.LBE38:
 655              		.loc 1 503 0
 656 0010 7C67185E 		isel %r3,%r7,%r3,1
 657              	.LVL82:
 658 0014 0004     		se_blr
 659              		.cfi_endproc
 660              	.LFE5:
 661              		.size	xStreamBufferBytesAvailable, .-xStreamBufferBytesAvailable
 662              		.section	.text.xStreamBufferSend,"axv",@progbits
 663              		.align 1
 664              		.p2align 4,,15
 665              		.globl xStreamBufferSend
 666              		.type	xStreamBufferSend, @function
 667              	xStreamBufferSend:
 668              	.LFB6:
 669              		.loc 1 510 0
 670              		.cfi_startproc
 671              	.LVL83:
 672 0000 182106C0 		e_stwu %r1,-64(%r1)
 673              	.LCFI17:
 674              		.cfi_def_cfa_offset 64
 675 0004 0080     		se_mflr %r0
 676 0006 1B210924 		e_stmw %r25,36(%r1)
 677 000a 54010044 		e_stw %r0,68(%r1)
 678              		.cfi_offset 65, 4
 679              		.cfi_offset 25, -28
 680              		.cfi_offset 26, -24
 681              		.cfi_offset 27, -20
 682              		.cfi_offset 28, -16
 683              		.cfi_offset 29, -12
 684              		.cfi_offset 30, -8
GAS LISTING C:\Users\marky\AppData\Local\Temp\cc4VHMFj.s 			page 13


 685              		.cfi_offset 31, -4
 686              		.loc 1 510 0
 687 000e 013E     		se_mr %r30,%r3
 688              	.LVL84:
 689              		.loc 1 523 0
 690 0010 33A3001C 		e_lbz %r29,28(%r3)
 691              		.loc 1 510 0
 692 0014 015C     		se_mr %r28,%r5
 693              	.LVL85:
 694              		.loc 1 525 0
 695 0016 77BD177B 		e_rlwinm %r29,%r29,2,29,29
 696              		.loc 1 510 0
 697 001a 014B     		se_mr %r27,%r4
 698 001c D661     		se_stw %r6,24(%r1)
 699              		.loc 1 525 0
 700 001e 045D     		se_add %r29,%r5
 701              	.LVL86:
 702              		.loc 1 535 0
 703 0020 2A06     		se_cmpi %r6,0
 704 0022 7A020094 		e_bne %cr0,.L40
 705              	.LVL87:
 706              	.L47:
 707              	.LBB40:
 708              	.LBB41:
 709              		.loc 1 477 0
 710 0026 C27E     		se_lwz %r7,8(%r30)
 711 0028 C06E     		se_lwz %r6,0(%r30)
 712              	.LVL88:
 713              		.loc 1 478 0
 714 002a C1FE     		se_lwz %r31,4(%r30)
 715              	.LVL89:
 716              		.loc 1 477 0
 717 002c 7CC73214 		add %r6,%r7,%r6
 718              	.LVL90:
 719 0030 18C684FF 		e_addi %r6,%r6,-1
 720              	.LVL91:
 721              		.loc 1 479 0
 722 0034 076F     		se_subf %r31, %r6
 723              	.LVL92:
 724              		.loc 1 483 0
 725 0036 7CC7F850 		subf %r6, %r7, %r31
 726 003a 0DF7     		se_cmpl %r7,%r31
 727 003c 7FFF305E 		isel %r31,%r31,%r6,1
 728              	.LVL93:
 729              	.L42:
 730              	.LBE41:
 731              	.LBE40:
 732              		.loc 1 584 0
 733 0040 01F6     		se_mr %r6,%r31
 734 0042 01E3     		se_mr %r3,%r30
 735 0044 01B4     		se_mr %r4,%r27
 736 0046 01C5     		se_mr %r5,%r28
 737 0048 01D7     		se_mr %r7,%r29
 738 004a 78000001 		e_bl prvWriteMessageToBuffer
 739              	.LVL94:
 740              		.loc 1 586 0
 741 004e 013F     		se_mr %r31,%r3
GAS LISTING C:\Users\marky\AppData\Local\Temp\cc4VHMFj.s 			page 14


 742              	.LVL95:
 743 0050 2A0F     		se_cmpi %r31,0
 744 0052 7A120020 		e_beq %cr0,.L48
 745              	.LVL96:
 746              	.LBB42:
 747              	.LBB43:
 748              		.loc 1 1194 0
 749 0056 C25E     		se_lwz %r5,8(%r30)
 750 0058 C16E     		se_lwz %r6,4(%r30)
 751              	.LBE43:
 752              	.LBE42:
 753              		.loc 1 591 0
 754 005a C34E     		se_lwz %r4,12(%r30)
 755              	.LBB45:
 756              	.LBB44:
 757              		.loc 1 1194 0
 758 005c 0456     		se_add %r6,%r5
 759              	.LVL97:
 760              		.loc 1 1195 0
 761 005e C07E     		se_lwz %r7,0(%r30)
 762 0060 0767     		se_subf %r7, %r6
 763              	.LVL98:
 764              		.loc 1 1198 0
 765 0062 0D75     		se_cmpl %r5,%r7
 766 0064 7CC53850 		subf %r6, %r5, %r7
 767 0068 7CE7305E 		isel %r7,%r7,%r6,1
 768              	.LVL99:
 769              	.LBE44:
 770              	.LBE45:
 771              		.loc 1 591 0
 772 006c 0D74     		se_cmpl %r4,%r7
 773 006e 7A010016 		e_ble %cr0,.L54
 774              	.LVL100:
 775              	.L48:
 776              		.loc 1 607 0
 777 0072 50010044 		e_lwz %r0,68(%r1)
 778 0076 0090     		se_mtlr %r0
 779              		.cfi_remember_state
 780              		.cfi_restore 65
 781 0078 01F3     		se_mr %r3,%r31
 782              	.LVL101:
 783 007a 1B210824 		e_lmw %r25,36(%r1)
 784              	.LVL102:
 785 007e 18218040 		e_addi %r1,%r1,64
 786              	.LCFI18:
 787              		.cfi_restore 31
 788              		.cfi_restore 30
 789              		.cfi_restore 29
 790              		.cfi_restore 28
 791              		.cfi_restore 27
 792              		.cfi_restore 26
 793              		.cfi_restore 25
 794              		.cfi_def_cfa_offset 0
 795              	.LVL103:
 796 0082 0004     		se_blr
 797              	.LVL104:
 798              	.L54:
GAS LISTING C:\Users\marky\AppData\Local\Temp\cc4VHMFj.s 			page 15


 799              	.LCFI19:
 800              		.cfi_restore_state
 801              		.loc 1 593 0
 802 0084 78000001 		e_bl vTaskSuspendAll
 803              	.LVL105:
 804 0088 C47E     		se_lwz %r7,16(%r30)
 805 008a 2A07     		se_cmpi %r7,0
 806 008c 7A120014 		e_beq %cr0,.L50
 807              		.loc 1 593 0 is_stmt 0 discriminator 1
 808 0090 C43E     		se_lwz %r3,16(%r30)
 809 0092 4804     		se_li %r4,0
 810 0094 4805     		se_li %r5,0
 811 0096 4806     		se_li %r6,0
 812 0098 78000001 		e_bl xTaskGenericNotify
 813              	.LVL106:
 814 009c 4807     		se_li %r7,0
 815 009e D47E     		se_stw %r7,16(%r30)
 816              	.L50:
 817              		.loc 1 593 0 discriminator 3
 818 00a0 78000001 		e_bl xTaskResumeAll
 819              	.LVL107:
 820              		.loc 1 607 0 is_stmt 1 discriminator 3
 821 00a4 50010044 		e_lwz %r0,68(%r1)
 822 00a8 0090     		se_mtlr %r0
 823              		.cfi_remember_state
 824              		.cfi_restore 65
 825 00aa 01F3     		se_mr %r3,%r31
 826 00ac 1B210824 		e_lmw %r25,36(%r1)
 827              	.LVL108:
 828 00b0 18218040 		e_addi %r1,%r1,64
 829              	.LCFI20:
 830              		.cfi_restore 25
 831              		.cfi_restore 26
 832              		.cfi_restore 27
 833              		.cfi_restore 28
 834              		.cfi_restore 29
 835              		.cfi_restore 30
 836              		.cfi_restore 31
 837              		.cfi_def_cfa_offset 0
 838              	.LVL109:
 839 00b4 0004     		se_blr
 840              	.LVL110:
 841              	.L40:
 842              	.LCFI21:
 843              		.cfi_restore_state
 844              		.loc 1 537 0
 845 00b6 1B418008 		e_addi %r26,%r1,8
 846 00ba 2C09     		se_bmaski %r25,0
 847 00bc 01A3     		se_mr %r3,%r26
 848              	.LVL111:
 849 00be 78000001 		e_bl vTaskSetTimeOutState
 850              	.LVL112:
 851 00c2 78000034 		e_b .L45
 852              	.LVL113:
 853              	.L55:
 854              		.loc 1 550 0
 855 00c6 4803     		se_li %r3,0
GAS LISTING C:\Users\marky\AppData\Local\Temp\cc4VHMFj.s 			page 16


 856 00c8 78000001 		e_bl xTaskNotifyStateClear
 857              	.LVL114:
 858              		.loc 1 554 0
 859 00cc 78000001 		e_bl xTaskGetCurrentTaskHandle
 860              	.LVL115:
 861 00d0 D53E     		se_stw %r3,20(%r30)
 862              		.loc 1 562 0
 863 00d2 78000001 		e_bl vTaskExitCritical
 864              	.LVL116:
 865              		.loc 1 565 0
 866 00d6 4804     		se_li %r4,0
 867 00d8 4805     		se_li %r5,0
 868 00da C661     		se_lwz %r6,24(%r1)
 869 00dc 4803     		se_li %r3,0
 870 00de 78000001 		e_bl xTaskNotifyWait
 871              	.LVL117:
 872              		.loc 1 566 0
 873 00e2 4807     		se_li %r7,0
 874              		.loc 1 568 0
 875 00e4 01A3     		se_mr %r3,%r26
 876              		.loc 1 566 0
 877 00e6 D57E     		se_stw %r7,20(%r30)
 878              		.loc 1 568 0
 879 00e8 18818018 		e_addi %r4,%r1,24
 880              	.LVL118:
 881 00ec 78000001 		e_bl xTaskCheckForTimeOut
 882              	.LVL119:
 883 00f0 2A03     		se_cmpi %r3,0
 884 00f2 7A020028 		e_bne %cr0,.L53
 885              	.LVL120:
 886              	.L45:
 887              		.loc 1 543 0
 888 00f6 78000001 		e_bl vTaskEnterCritical
 889              	.LVL121:
 890              	.LBB46:
 891              	.LBB47:
 892              		.loc 1 477 0
 893 00fa C20E     		se_lwz %r0,8(%r30)
 894 00fc C06E     		se_lwz %r6,0(%r30)
 895              	.LVL122:
 896              		.loc 1 478 0
 897 00fe C1FE     		se_lwz %r31,4(%r30)
 898              	.LVL123:
 899              		.loc 1 477 0
 900 0100 7CC03214 		add %r6,%r0,%r6
 901              	.LVL124:
 902 0104 0496     		se_add %r6,%r25
 903              	.LVL125:
 904              		.loc 1 479 0
 905 0106 076F     		se_subf %r31, %r6
 906              	.LVL126:
 907              		.loc 1 483 0
 908 0108 0DF0     		se_cmpl %r0,%r31
 909 010a 07F0     		se_subf %r0, %r31
 910 010c 7FFF005E 		isel %r31,%r31,%r0,1
 911              	.LVL127:
 912              	.LBE47:
GAS LISTING C:\Users\marky\AppData\Local\Temp\cc4VHMFj.s 			page 17


 913              	.LBE46:
 914              		.loc 1 547 0
 915 0110 0DFD     		se_cmpl %r29,%r31
 916 0112 7A11FFB4 		e_bgt %cr0,.L55
 917              		.loc 1 558 0
 918 0116 78000001 		e_bl vTaskExitCritical
 919              	.LVL128:
 920              	.L53:
 921              		.loc 1 575 0
 922 011a 2A0F     		se_cmpi %r31,0
 923 011c 7A02FF24 		e_bne %cr0,.L42
 924 0120 79FFFF06 		e_b .L47
 925              		.cfi_endproc
 926              	.LFE6:
 927              		.size	xStreamBufferSend, .-xStreamBufferSend
 928              		.section	.text.xStreamBufferSendFromISR,"axv",@progbits
 929              		.align 1
 930              		.p2align 4,,15
 931              		.globl xStreamBufferSendFromISR
 932              		.type	xStreamBufferSendFromISR, @function
 933              	xStreamBufferSendFromISR:
 934              	.LFB7:
 935              		.loc 1 614 0
 936              		.cfi_startproc
 937              	.LVL129:
 938 0000 182106E8 		e_stwu %r1,-24(%r1)
 939              	.LCFI22:
 940              		.cfi_def_cfa_offset 24
 941 0004 0080     		se_mflr %r0
 942 0006 1B810908 		e_stmw %r28,8(%r1)
 943 000a D701     		se_stw %r0,28(%r1)
 944              		.cfi_offset 65, 4
 945              		.cfi_offset 28, -16
 946              		.cfi_offset 29, -12
 947              		.cfi_offset 30, -8
 948              		.cfi_offset 31, -4
 949              		.loc 1 628 0
 950 000c 18E58004 		e_addi %r7,%r5,4
 951              	.LBB48:
 952              	.LBB49:
 953              		.loc 1 477 0
 954 0010 C2E3     		se_lwz %r30,8(%r3)
 955 0012 C003     		se_lwz %r0,0(%r3)
 956              	.LBE49:
 957              	.LBE48:
 958              		.loc 1 626 0
 959 0014 3163001C 		e_lbz %r11,28(%r3)
 960              		.loc 1 614 0
 961 0018 013F     		se_mr %r31,%r3
 962              	.LVL130:
 963              		.loc 1 626 0
 964 001a 196BC001 		e_andi %r11,%r11,1
 965              		.loc 1 614 0
 966 001e 016D     		se_mr %r29,%r6
 967              		.loc 1 626 0
 968 0020 700B9800 		e_cmp16i %r11,0
 969              	.LVL131:
GAS LISTING C:\Users\marky\AppData\Local\Temp\cc4VHMFj.s 			page 18


 970              	.LBB52:
 971              	.LBB50:
 972              		.loc 1 478 0
 973 0024 C163     		se_lwz %r6,4(%r3)
 974              	.LVL132:
 975              	.LBE50:
 976              	.LBE52:
 977              		.loc 1 636 0
 978 0026 7CE5389E 		isel %r7,%r5,%r7,2
 979              	.LVL133:
 980              	.LBB53:
 981              	.LBB51:
 982              		.loc 1 477 0
 983 002a 7C1E0214 		add %r0,%r30,%r0
 984              	.LVL134:
 985 002e 180084FF 		e_addi %r0,%r0,-1
 986              	.LVL135:
 987              		.loc 1 479 0
 988 0032 0660     		se_sub %r0, %r6
 989              	.LVL136:
 990              		.loc 1 481 0
 991 0034 0D0E     		se_cmpl %r30,%r0
 992              		.loc 1 483 0
 993 0036 7CDE0050 		subf %r6, %r30, %r0
 994              	.LVL137:
 995              	.LBE51:
 996              	.LBE53:
 997              		.loc 1 636 0
 998 003a 7C170378 		mr 23,%r0
 999 003e 7CD7305E 		isel %r6,23,%r6,1
 1000              	.LVL138:
 1001 0042 78000001 		e_bl prvWriteMessageToBuffer
 1002              	.LVL139:
 1003              		.loc 1 638 0
 1004 0046 013C     		se_mr %r28,%r3
 1005 0048 2A0C     		se_cmpi %r28,0
 1006 004a 7A120038 		e_beq %cr0,.L59
 1007              	.LVL140:
 1008              	.LBB54:
 1009              	.LBB55:
 1010              		.loc 1 1194 0
 1011 004e C20F     		se_lwz %r0,8(%r31)
 1012 0050 C14F     		se_lwz %r4,4(%r31)
 1013              	.LBE55:
 1014              	.LBE54:
 1015              		.loc 1 641 0
 1016 0052 C3EF     		se_lwz %r30,12(%r31)
 1017              	.LBB57:
 1018              	.LBB56:
 1019              		.loc 1 1194 0
 1020 0054 0404     		se_add %r4,%r0
 1021              	.LVL141:
 1022              		.loc 1 1195 0
 1023 0056 C05F     		se_lwz %r5,0(%r31)
 1024 0058 0745     		se_subf %r5, %r4
 1025              	.LVL142:
 1026              		.loc 1 1196 0
GAS LISTING C:\Users\marky\AppData\Local\Temp\cc4VHMFj.s 			page 19


 1027 005a 0D50     		se_cmpl %r0,%r5
 1028              		.loc 1 1198 0
 1029 005c 0750     		se_subf %r0, %r5
 1030 005e 7CA5005E 		isel %r5,%r5,%r0,1
 1031              	.LVL143:
 1032              	.LBE56:
 1033              	.LBE57:
 1034              		.loc 1 641 0
 1035 0062 0D5E     		se_cmpl %r30,%r5
 1036 0064 7A11001E 		e_bgt %cr0,.L59
 1037              	.LVL144:
 1038              	.LBB58:
 1039              		.loc 1 643 0
 1040 0068 C47F     		se_lwz %r7,16(%r31)
 1041 006a 2A07     		se_cmpi %r7,0
 1042 006c 7A120016 		e_beq %cr0,.L59
 1043              		.loc 1 643 0 is_stmt 0 discriminator 1
 1044 0070 01D7     		se_mr %r7,%r29
 1045 0072 C43F     		se_lwz %r3,16(%r31)
 1046              	.LVL145:
 1047 0074 4804     		se_li %r4,0
 1048 0076 4805     		se_li %r5,0
 1049              	.LVL146:
 1050 0078 4806     		se_li %r6,0
 1051 007a 78000001 		e_bl xTaskGenericNotifyFromISR
 1052              	.LVL147:
 1053 007e 4807     		se_li %r7,0
 1054 0080 D47F     		se_stw %r7,16(%r31)
 1055              	.LVL148:
 1056              	.L59:
 1057              	.LBE58:
 1058              		.loc 1 658 0 is_stmt 1
 1059 0082 C701     		se_lwz %r0,28(%r1)
 1060 0084 0090     		se_mtlr %r0
 1061              		.cfi_restore 65
 1062 0086 01C3     		se_mr %r3,%r28
 1063 0088 1B810808 		e_lmw %r28,8(%r1)
 1064              	.LVL149:
 1065 008c 2171     		se_addi %r1,24
 1066              	.LCFI23:
 1067              		.cfi_restore 31
 1068              		.cfi_restore 30
 1069              		.cfi_restore 29
 1070              		.cfi_restore 28
 1071              		.cfi_def_cfa_offset 0
 1072 008e 0004     		se_blr
 1073              		.cfi_endproc
 1074              	.LFE7:
 1075              		.size	xStreamBufferSendFromISR, .-xStreamBufferSendFromISR
 1076              		.section	.text.xStreamBufferReceive,"axv",@progbits
 1077              		.align 1
 1078              		.p2align 4,,15
 1079              		.globl xStreamBufferReceive
 1080              		.type	xStreamBufferReceive, @function
 1081              	xStreamBufferReceive:
 1082              	.LFB9:
 1083              		.loc 1 717 0
GAS LISTING C:\Users\marky\AppData\Local\Temp\cc4VHMFj.s 			page 20


 1084              		.cfi_startproc
 1085              	.LVL150:
 1086 0000 182106D0 		e_stwu %r1,-48(%r1)
 1087              	.LCFI24:
 1088              		.cfi_def_cfa_offset 48
 1089 0004 0080     		se_mflr %r0
 1090 0006 1B410918 		e_stmw %r26,24(%r1)
 1091 000a DD01     		se_stw %r0,52(%r1)
 1092              		.cfi_offset 65, 4
 1093              		.cfi_offset 26, -24
 1094              		.cfi_offset 27, -20
 1095              		.cfi_offset 28, -16
 1096              		.cfi_offset 29, -12
 1097              		.cfi_offset 30, -8
 1098              		.cfi_offset 31, -4
 1099              		.loc 1 738 0
 1100 000c 016A     		se_mr %r26,%r6
 1101              		.loc 1 729 0
 1102 000e 33A3001C 		e_lbz %r29,28(%r3)
 1103              		.loc 1 717 0
 1104 0012 013E     		se_mr %r30,%r3
 1105              	.LVL151:
 1106 0014 014B     		se_mr %r27,%r4
 1107 0016 015C     		se_mr %r28,%r5
 1108              		.loc 1 735 0
 1109 0018 77BD177B 		e_rlwinm %r29,%r29,2,29,29
 1110              	.LVL152:
 1111              		.loc 1 738 0
 1112 001c 2A0A     		se_cmpi %r26,0
 1113 001e 7A02002E 		e_bne %cr0,.L77
 1114              	.LVL153:
 1115              	.LBB67:
 1116              	.LBB68:
 1117              		.loc 1 1194 0
 1118 0022 C263     		se_lwz %r6,8(%r3)
 1119              	.LVL154:
 1120              	.L76:
 1121 0024 C17E     		se_lwz %r7,4(%r30)
 1122              	.LVL155:
 1123              		.loc 1 1195 0
 1124 0026 C0FE     		se_lwz %r31,0(%r30)
 1125              		.loc 1 1194 0
 1126 0028 0467     		se_add %r7,%r6
 1127              	.LVL156:
 1128              		.loc 1 1195 0
 1129 002a 077F     		se_subf %r31, %r7
 1130              	.LVL157:
 1131              		.loc 1 1196 0
 1132 002c 0DF6     		se_cmpl %r6,%r31
 1133              		.loc 1 1198 0
 1134 002e 07F6     		se_subf %r6, %r31
 1135 0030 7FFF305E 		isel %r31,%r31,%r6,1
 1136              	.LVL158:
 1137              	.LBE68:
 1138              	.LBE67:
 1139              		.loc 1 792 0
 1140 0034 0DDF     		se_cmpl %r31,%r29
GAS LISTING C:\Users\marky\AppData\Local\Temp\cc4VHMFj.s 			page 21


 1141 0036 7A110036 		e_bgt %cr0,.L69
 1142              	.LVL159:
 1143              	.L72:
 1144              		.loc 1 814 0
 1145 003a CD01     		se_lwz %r0,52(%r1)
 1146 003c 0090     		se_mtlr %r0
 1147              		.cfi_remember_state
 1148              		.cfi_restore 65
 1149              		.loc 1 719 0
 1150 003e 480F     		se_li %r31,0
 1151              	.LVL160:
 1152              		.loc 1 814 0
 1153 0040 01F3     		se_mr %r3,%r31
 1154 0042 1B410818 		e_lmw %r26,24(%r1)
 1155              	.LVL161:
 1156 0046 18218030 		e_addi %r1,%r1,48
 1157              	.LCFI25:
 1158              		.cfi_restore 31
 1159              		.cfi_restore 30
 1160              		.cfi_restore 29
 1161              		.cfi_restore 28
 1162              		.cfi_restore 27
 1163              		.cfi_restore 26
 1164              		.cfi_def_cfa_offset 0
 1165 004a 0004     		se_blr
 1166              	.LVL162:
 1167              	.L77:
 1168              	.LCFI26:
 1169              		.cfi_restore_state
 1170              		.loc 1 742 0
 1171 004c 78000001 		e_bl vTaskEnterCritical
 1172              	.LVL163:
 1173              	.LBB69:
 1174              	.LBB70:
 1175              		.loc 1 1194 0
 1176 0050 C25E     		se_lwz %r5,8(%r30)
 1177 0052 C17E     		se_lwz %r7,4(%r30)
 1178              	.LVL164:
 1179              		.loc 1 1195 0
 1180 0054 C0FE     		se_lwz %r31,0(%r30)
 1181              		.loc 1 1194 0
 1182 0056 0457     		se_add %r7,%r5
 1183              	.LVL165:
 1184              		.loc 1 1195 0
 1185 0058 077F     		se_subf %r31, %r7
 1186              	.LVL166:
 1187              		.loc 1 1196 0
 1188 005a 0DF5     		se_cmpl %r5,%r31
 1189              		.loc 1 1198 0
 1190 005c 07F5     		se_subf %r5, %r31
 1191 005e 7FFF285E 		isel %r31,%r31,%r5,1
 1192              	.LVL167:
 1193              	.LBE70:
 1194              	.LBE69:
 1195              		.loc 1 751 0
 1196 0062 0DFD     		se_cmpl %r29,%r31
 1197 0064 7A000074 		e_bge %cr0,.L78
GAS LISTING C:\Users\marky\AppData\Local\Temp\cc4VHMFj.s 			page 22


 1198              		.loc 1 765 0
 1199 0068 78000001 		e_bl vTaskExitCritical
 1200              	.LVL168:
 1201              	.L69:
 1202              	.LBB71:
 1203              	.LBB72:
 1204              		.loc 1 927 0
 1205 006c 2A0D     		se_cmpi %r29,0
 1206 006e 7A020048 		e_bne %cr0,.L79
 1207              	.LVL169:
 1208              	.L71:
 1209              		.loc 1 964 0
 1210 0072 01F6     		se_mr %r6,%r31
 1211 0074 01E3     		se_mr %r3,%r30
 1212 0076 01B4     		se_mr %r4,%r27
 1213 0078 01C5     		se_mr %r5,%r28
 1214 007a 78000001 		e_bl prvReadBytesFromBuffer
 1215              	.LVL170:
 1216              	.LBE72:
 1217              	.LBE71:
 1218              		.loc 1 797 0
 1219 007e 013F     		se_mr %r31,%r3
 1220              	.LVL171:
 1221 0080 2A0F     		se_cmpi %r31,0
 1222 0082 7A12FFB8 		e_beq %cr0,.L72
 1223              		.loc 1 800 0
 1224 0086 78000001 		e_bl vTaskSuspendAll
 1225              	.LVL172:
 1226 008a C57E     		se_lwz %r7,20(%r30)
 1227 008c 2A07     		se_cmpi %r7,0
 1228 008e 7A120014 		e_beq %cr0,.L73
 1229              		.loc 1 800 0 is_stmt 0 discriminator 1
 1230 0092 C53E     		se_lwz %r3,20(%r30)
 1231 0094 4804     		se_li %r4,0
 1232 0096 4805     		se_li %r5,0
 1233 0098 4806     		se_li %r6,0
 1234 009a 78000001 		e_bl xTaskGenericNotify
 1235              	.LVL173:
 1236 009e 4807     		se_li %r7,0
 1237 00a0 D57E     		se_stw %r7,20(%r30)
 1238              	.L73:
 1239              		.loc 1 800 0 discriminator 3
 1240 00a2 78000001 		e_bl xTaskResumeAll
 1241              	.LVL174:
 1242              		.loc 1 814 0 is_stmt 1 discriminator 3
 1243 00a6 CD01     		se_lwz %r0,52(%r1)
 1244 00a8 0090     		se_mtlr %r0
 1245              		.cfi_remember_state
 1246              		.cfi_restore 65
 1247 00aa 01F3     		se_mr %r3,%r31
 1248 00ac 1B410818 		e_lmw %r26,24(%r1)
 1249              	.LVL175:
 1250 00b0 18218030 		e_addi %r1,%r1,48
 1251              	.LCFI27:
 1252              		.cfi_restore 26
 1253              		.cfi_restore 27
 1254              		.cfi_restore 28
GAS LISTING C:\Users\marky\AppData\Local\Temp\cc4VHMFj.s 			page 23


 1255              		.cfi_restore 29
 1256              		.cfi_restore 30
 1257              		.cfi_restore 31
 1258              		.cfi_def_cfa_offset 0
 1259 00b4 0004     		se_blr
 1260              	.LVL176:
 1261              	.L79:
 1262              	.LCFI28:
 1263              		.cfi_restore_state
 1264              	.LBB75:
 1265              	.LBB73:
 1266              		.loc 1 934 0
 1267 00b6 01F6     		se_mr %r6,%r31
 1268              		.loc 1 933 0
 1269 00b8 C0AE     		se_lwz %r26,0(%r30)
 1270              	.LVL177:
 1271              		.loc 1 934 0
 1272 00ba 01E3     		se_mr %r3,%r30
 1273 00bc 18818008 		e_addi %r4,%r1,8
 1274 00c0 01D5     		se_mr %r5,%r29
 1275              		.loc 1 939 0
 1276 00c2 06DF     		se_sub %r31, %r29
 1277              	.LVL178:
 1278              		.loc 1 934 0
 1279 00c4 78000001 		e_bl prvReadBytesFromBuffer
 1280              	.LVL179:
 1281              		.loc 1 935 0
 1282 00c8 C271     		se_lwz %r7,8(%r1)
 1283              	.LVL180:
 1284              		.loc 1 943 0
 1285 00ca 0D7C     		se_cmpl %r28,%r7
 1286 00cc 7A000032 		e_bge %cr0,.L75
 1287              		.loc 1 948 0
 1288 00d0 D0AE     		se_stw %r26,0(%r30)
 1289              	.LVL181:
 1290              		.loc 1 949 0
 1291 00d2 480C     		se_li %r28,0
 1292              	.LVL182:
 1293 00d4 79FFFF9E 		e_b .L71
 1294              	.LVL183:
 1295              	.L78:
 1296              	.LBE73:
 1297              	.LBE75:
 1298              		.loc 1 754 0
 1299 00d8 4803     		se_li %r3,0
 1300 00da 78000001 		e_bl xTaskNotifyStateClear
 1301              	.LVL184:
 1302              		.loc 1 758 0
 1303 00de 78000001 		e_bl xTaskGetCurrentTaskHandle
 1304              	.LVL185:
 1305 00e2 D43E     		se_stw %r3,16(%r30)
 1306              		.loc 1 765 0
 1307 00e4 78000001 		e_bl vTaskExitCritical
 1308              	.LVL186:
 1309              		.loc 1 771 0
 1310 00e8 01A6     		se_mr %r6,%r26
 1311 00ea 4803     		se_li %r3,0
GAS LISTING C:\Users\marky\AppData\Local\Temp\cc4VHMFj.s 			page 24


 1312 00ec 4804     		se_li %r4,0
 1313 00ee 4805     		se_li %r5,0
 1314 00f0 78000001 		e_bl xTaskNotifyWait
 1315              	.LVL187:
 1316              		.loc 1 772 0
 1317 00f4 4807     		se_li %r7,0
 1318              	.LBB76:
 1319              	.LBB77:
 1320              		.loc 1 1194 0
 1321 00f6 C26E     		se_lwz %r6,8(%r30)
 1322              	.LBE77:
 1323              	.LBE76:
 1324              		.loc 1 772 0
 1325 00f8 D47E     		se_stw %r7,16(%r30)
 1326              	.LVL188:
 1327 00fa 79FFFF2A 		e_b .L76
 1328              	.LVL189:
 1329              	.L75:
 1330              	.LBB78:
 1331              	.LBB74:
 1332              		.loc 1 943 0
 1333 00fe 017C     		se_mr %r28,%r7
 1334              	.LVL190:
 1335 0100 79FFFF72 		e_b .L71
 1336              	.LBE74:
 1337              	.LBE78:
 1338              		.cfi_endproc
 1339              	.LFE9:
 1340              		.size	xStreamBufferReceive, .-xStreamBufferReceive
 1341              		.section	.text.xStreamBufferNextMessageLengthBytes,"axv",@progbits
 1342              		.align 1
 1343              		.p2align 4,,15
 1344              		.globl xStreamBufferNextMessageLengthBytes
 1345              		.type	xStreamBufferNextMessageLengthBytes, @function
 1346              	xStreamBufferNextMessageLengthBytes:
 1347              	.LFB10:
 1348              		.loc 1 818 0
 1349              		.cfi_startproc
 1350              	.LVL191:
 1351 0000 182106E0 		e_stwu %r1,-32(%r1)
 1352              	.LCFI29:
 1353              		.cfi_def_cfa_offset 32
 1354 0004 0080     		se_mflr %r0
 1355 0006 1BC10918 		e_stmw %r30,24(%r1)
 1356 000a D901     		se_stw %r0,36(%r1)
 1357              		.cfi_offset 65, 4
 1358              		.cfi_offset 30, -8
 1359              		.cfi_offset 31, -4
 1360              		.loc 1 854 0
 1361 000c 4800     		se_li %r0,0
 1362              		.loc 1 826 0
 1363 000e 30E3001C 		e_lbz %r7,28(%r3)
 1364 0012 67F7     		se_btsti %r7,31
 1365 0014 7A12001C 		e_beq %cr0,.L81
 1366              	.LVL192:
 1367              	.LBB79:
 1368              	.LBB80:
GAS LISTING C:\Users\marky\AppData\Local\Temp\cc4VHMFj.s 			page 25


 1369              		.loc 1 1194 0
 1370 0018 C243     		se_lwz %r4,8(%r3)
 1371 001a C173     		se_lwz %r7,4(%r3)
 1372              	.LVL193:
 1373              		.loc 1 1195 0
 1374 001c C063     		se_lwz %r6,0(%r3)
 1375              		.loc 1 1194 0
 1376 001e 0447     		se_add %r7,%r4
 1377              	.LVL194:
 1378              		.loc 1 1195 0
 1379 0020 0776     		se_subf %r6, %r7
 1380              	.LVL195:
 1381              		.loc 1 1196 0
 1382 0022 0D64     		se_cmpl %r4,%r6
 1383              		.loc 1 1198 0
 1384 0024 0764     		se_subf %r4, %r6
 1385 0026 7CC6205E 		isel %r6,%r6,%r4,1
 1386              	.LVL196:
 1387              	.LBE80:
 1388              	.LBE79:
 1389              		.loc 1 829 0
 1390 002a 2236     		se_cmpli %r6,4
 1391 002c 7A110012 		e_bgt %cr0,.L85
 1392              	.LVL197:
 1393              	.L81:
 1394              		.loc 1 858 0
 1395 0030 0103     		se_mr %r3,%r0
 1396              	.LVL198:
 1397 0032 C901     		se_lwz %r0,36(%r1)
 1398              	.LVL199:
 1399 0034 0090     		se_mtlr %r0
 1400              		.cfi_remember_state
 1401              		.cfi_restore 65
 1402 0036 1BC10818 		e_lmw %r30,24(%r1)
 1403 003a 21F1     		se_addi %r1,32
 1404              	.LCFI30:
 1405              		.cfi_restore 31
 1406              		.cfi_restore 30
 1407              		.cfi_def_cfa_offset 0
 1408 003c 0004     		se_blr
 1409              	.LVL200:
 1410              	.L85:
 1411              	.LCFI31:
 1412              		.cfi_restore_state
 1413 003e 013F     		se_mr %r31,%r3
 1414              		.loc 1 837 0
 1415 0040 C0E3     		se_lwz %r30,0(%r3)
 1416              	.LVL201:
 1417              		.loc 1 838 0
 1418 0042 18818008 		e_addi %r4,%r1,8
 1419 0046 4845     		se_li %r5,4
 1420 0048 78000001 		e_bl prvReadBytesFromBuffer
 1421              	.LVL202:
 1422              		.loc 1 839 0
 1423 004c C201     		se_lwz %r0,8(%r1)
 1424              	.LVL203:
 1425              		.loc 1 858 0
GAS LISTING C:\Users\marky\AppData\Local\Temp\cc4VHMFj.s 			page 26


 1426 004e 0103     		se_mr %r3,%r0
 1427 0050 C901     		se_lwz %r0,36(%r1)
 1428              	.LVL204:
 1429 0052 0090     		se_mtlr %r0
 1430              		.cfi_restore 65
 1431              		.loc 1 840 0
 1432 0054 D0EF     		se_stw %r30,0(%r31)
 1433              	.LVL205:
 1434              		.loc 1 858 0
 1435 0056 1BC10818 		e_lmw %r30,24(%r1)
 1436              	.LVL206:
 1437 005a 21F1     		se_addi %r1,32
 1438              	.LCFI32:
 1439              		.cfi_restore 30
 1440              		.cfi_restore 31
 1441              		.cfi_def_cfa_offset 0
 1442 005c 0004     		se_blr
 1443              		.cfi_endproc
 1444              	.LFE10:
 1445              		.size	xStreamBufferNextMessageLengthBytes, .-xStreamBufferNextMessageLengthBytes
 1446              		.section	.text.xStreamBufferReceiveFromISR,"axv",@progbits
 1447              		.align 1
 1448              		.p2align 4,,15
 1449              		.globl xStreamBufferReceiveFromISR
 1450              		.type	xStreamBufferReceiveFromISR, @function
 1451              	xStreamBufferReceiveFromISR:
 1452              	.LFB11:
 1453              		.loc 1 865 0
 1454              		.cfi_startproc
 1455              	.LVL207:
 1456 0000 182106C8 		e_stwu %r1,-56(%r1)
 1457              	.LCFI33:
 1458              		.cfi_def_cfa_offset 56
 1459 0004 0080     		se_mflr %r0
 1460 0006 1B21091C 		e_stmw %r25,28(%r1)
 1461 000a DF01     		se_stw %r0,60(%r1)
 1462              		.cfi_offset 65, 4
 1463              		.cfi_offset 25, -28
 1464              		.cfi_offset 26, -24
 1465              		.cfi_offset 27, -20
 1466              		.cfi_offset 28, -16
 1467              		.cfi_offset 29, -12
 1468              		.cfi_offset 30, -8
 1469              		.cfi_offset 31, -4
 1470              		.loc 1 865 0
 1471 000c 013E     		se_mr %r30,%r3
 1472              	.LVL208:
 1473              	.LBB86:
 1474              	.LBB87:
 1475              		.loc 1 1194 0
 1476 000e C203     		se_lwz %r0,8(%r3)
 1477 0010 C173     		se_lwz %r7,4(%r3)
 1478              	.LBE87:
 1479              	.LBE86:
 1480              		.loc 1 877 0
 1481 0012 33A3001C 		e_lbz %r29,28(%r3)
 1482              	.LBB93:
GAS LISTING C:\Users\marky\AppData\Local\Temp\cc4VHMFj.s 			page 27


 1483              	.LBB88:
 1484              		.loc 1 1194 0
 1485 0016 0407     		se_add %r7,%r0
 1486              		.loc 1 1195 0
 1487 0018 C0F3     		se_lwz %r31,0(%r3)
 1488              	.LBE88:
 1489              	.LBE93:
 1490              		.loc 1 883 0
 1491 001a 77BD177B 		e_rlwinm %r29,%r29,2,29,29
 1492              	.LVL209:
 1493              	.LBB94:
 1494              	.LBB89:
 1495              		.loc 1 1195 0
 1496 001e 077F     		se_subf %r31, %r7
 1497              	.LVL210:
 1498              	.LBE89:
 1499              	.LBE94:
 1500              		.loc 1 865 0
 1501 0020 014B     		se_mr %r27,%r4
 1502              	.LBB95:
 1503              	.LBB90:
 1504              		.loc 1 1196 0
 1505 0022 0DF0     		se_cmpl %r0,%r31
 1506              	.LBE90:
 1507              	.LBE95:
 1508              		.loc 1 865 0
 1509 0024 015C     		se_mr %r28,%r5
 1510              	.LBB96:
 1511              	.LBB91:
 1512              		.loc 1 1198 0
 1513 0026 07F0     		se_subf %r0, %r31
 1514              	.LBE91:
 1515              	.LBE96:
 1516              		.loc 1 865 0
 1517 0028 016A     		se_mr %r26,%r6
 1518              	.LBB97:
 1519              	.LBB92:
 1520              		.loc 1 1198 0
 1521 002a 7FFF005E 		isel %r31,%r31,%r0,1
 1522              	.LVL211:
 1523              	.LBE92:
 1524              	.LBE97:
 1525              		.loc 1 893 0
 1526 002e 0DFD     		se_cmpl %r29,%r31
 1527 0030 7A100016 		e_blt %cr0,.L89
 1528              	.LVL212:
 1529              	.L92:
 1530              		.loc 1 867 0
 1531 0034 480F     		se_li %r31,0
 1532              	.L90:
 1533              	.LVL213:
 1534              		.loc 1 915 0
 1535 0036 CF01     		se_lwz %r0,60(%r1)
 1536 0038 0090     		se_mtlr %r0
 1537              		.cfi_remember_state
 1538              		.cfi_restore 65
 1539 003a 01F3     		se_mr %r3,%r31
GAS LISTING C:\Users\marky\AppData\Local\Temp\cc4VHMFj.s 			page 28


 1540 003c 1B21081C 		e_lmw %r25,28(%r1)
 1541              	.LVL214:
 1542 0040 18218038 		e_addi %r1,%r1,56
 1543              	.LCFI34:
 1544              		.cfi_restore 31
 1545              		.cfi_restore 30
 1546              		.cfi_restore 29
 1547              		.cfi_restore 28
 1548              		.cfi_restore 27
 1549              		.cfi_restore 26
 1550              		.cfi_restore 25
 1551              		.cfi_def_cfa_offset 0
 1552 0044 0004     		se_blr
 1553              	.LVL215:
 1554              	.L89:
 1555              	.LCFI35:
 1556              		.cfi_restore_state
 1557              	.LBB98:
 1558              	.LBB99:
 1559              		.loc 1 927 0
 1560 0046 2A0D     		se_cmpi %r29,0
 1561 0048 7A020042 		e_bne %cr0,.L95
 1562              	.LVL216:
 1563              	.L91:
 1564              		.loc 1 964 0
 1565 004c 01F6     		se_mr %r6,%r31
 1566 004e 01E3     		se_mr %r3,%r30
 1567 0050 01B4     		se_mr %r4,%r27
 1568 0052 01C5     		se_mr %r5,%r28
 1569 0054 78000001 		e_bl prvReadBytesFromBuffer
 1570              	.LVL217:
 1571              	.LBE99:
 1572              	.LBE98:
 1573              		.loc 1 898 0
 1574 0058 013F     		se_mr %r31,%r3
 1575              	.LVL218:
 1576 005a 2A0F     		se_cmpi %r31,0
 1577 005c 7A12FFD8 		e_beq %cr0,.L92
 1578              	.LVL219:
 1579              	.LBB101:
 1580              		.loc 1 900 0
 1581 0060 C57E     		se_lwz %r7,20(%r30)
 1582 0062 2A07     		se_cmpi %r7,0
 1583 0064 7A12FFD2 		e_beq %cr0,.L90
 1584              		.loc 1 900 0 is_stmt 0 discriminator 1
 1585 0068 01A7     		se_mr %r7,%r26
 1586 006a C53E     		se_lwz %r3,20(%r30)
 1587              	.LVL220:
 1588 006c 4804     		se_li %r4,0
 1589 006e 4805     		se_li %r5,0
 1590 0070 4806     		se_li %r6,0
 1591 0072 78000001 		e_bl xTaskGenericNotifyFromISR
 1592              	.LVL221:
 1593              	.LBE101:
 1594              		.loc 1 915 0 is_stmt 1 discriminator 1
 1595 0076 CF01     		se_lwz %r0,60(%r1)
 1596 0078 0090     		se_mtlr %r0
GAS LISTING C:\Users\marky\AppData\Local\Temp\cc4VHMFj.s 			page 29


 1597              		.cfi_remember_state
 1598              		.cfi_restore 65
 1599 007a 01F3     		se_mr %r3,%r31
 1600              	.LBB102:
 1601              		.loc 1 900 0 discriminator 1
 1602 007c 4807     		se_li %r7,0
 1603 007e D57E     		se_stw %r7,20(%r30)
 1604              	.LVL222:
 1605              	.LBE102:
 1606              		.loc 1 915 0 discriminator 1
 1607 0080 1B21081C 		e_lmw %r25,28(%r1)
 1608              	.LVL223:
 1609 0084 18218038 		e_addi %r1,%r1,56
 1610              	.LCFI36:
 1611              		.cfi_restore 25
 1612              		.cfi_restore 26
 1613              		.cfi_restore 27
 1614              		.cfi_restore 28
 1615              		.cfi_restore 29
 1616              		.cfi_restore 30
 1617              		.cfi_restore 31
 1618              		.cfi_def_cfa_offset 0
 1619 0088 0004     		se_blr
 1620              	.LVL224:
 1621              	.L95:
 1622              	.LCFI37:
 1623              		.cfi_restore_state
 1624              	.LBB103:
 1625              	.LBB100:
 1626              		.loc 1 934 0
 1627 008a 01F6     		se_mr %r6,%r31
 1628              	.LVL225:
 1629              		.loc 1 933 0
 1630 008c C093     		se_lwz %r25,0(%r3)
 1631              	.LVL226:
 1632              		.loc 1 934 0
 1633 008e 18818008 		e_addi %r4,%r1,8
 1634              	.LVL227:
 1635 0092 01D5     		se_mr %r5,%r29
 1636              	.LVL228:
 1637              		.loc 1 939 0
 1638 0094 06DF     		se_sub %r31, %r29
 1639              	.LVL229:
 1640              		.loc 1 934 0
 1641 0096 78000001 		e_bl prvReadBytesFromBuffer
 1642              	.LVL230:
 1643              		.loc 1 935 0
 1644 009a C271     		se_lwz %r7,8(%r1)
 1645              	.LVL231:
 1646              		.loc 1 943 0
 1647 009c 0D7C     		se_cmpl %r28,%r7
 1648 009e 7A00000C 		e_bge %cr0,.L94
 1649              		.loc 1 948 0
 1650 00a2 D09E     		se_stw %r25,0(%r30)
 1651              	.LVL232:
 1652              		.loc 1 949 0
 1653 00a4 480C     		se_li %r28,0
GAS LISTING C:\Users\marky\AppData\Local\Temp\cc4VHMFj.s 			page 30


 1654              	.LVL233:
 1655 00a6 79FFFFA6 		e_b .L91
 1656              	.LVL234:
 1657              	.L94:
 1658              		.loc 1 943 0
 1659 00aa 017C     		se_mr %r28,%r7
 1660              	.LVL235:
 1661 00ac 79FFFFA0 		e_b .L91
 1662              	.LBE100:
 1663              	.LBE103:
 1664              		.cfi_endproc
 1665              	.LFE11:
 1666              		.size	xStreamBufferReceiveFromISR, .-xStreamBufferReceiveFromISR
 1667              		.section	.text.xStreamBufferIsEmpty,"axv",@progbits
 1668              		.align 1
 1669              		.p2align 4,,15
 1670              		.globl xStreamBufferIsEmpty
 1671              		.type	xStreamBufferIsEmpty, @function
 1672              	xStreamBufferIsEmpty:
 1673              	.LFB13:
 1674              		.loc 1 971 0
 1675              		.cfi_startproc
 1676              	.LVL236:
 1677              		.loc 1 979 0
 1678 0000 C063     		se_lwz %r6,0(%r3)
 1679              	.LVL237:
 1680              		.loc 1 980 0
 1681 0002 C133     		se_lwz %r3,4(%r3)
 1682              	.LVL238:
 1683              		.loc 1 990 0
 1684 0004 7CC31A78 		xor %r3,%r6,%r3
 1685              	.LVL239:
 1686 0008 7C630034 		cntlzw %r3,%r3
 1687 000c 6853     		se_srwi %r3,5
 1688 000e 0004     		se_blr
 1689              		.cfi_endproc
 1690              	.LFE13:
 1691              		.size	xStreamBufferIsEmpty, .-xStreamBufferIsEmpty
 1692              		.section	.text.xStreamBufferIsFull,"axv",@progbits
 1693              		.align 1
 1694              		.p2align 4,,15
 1695              		.globl xStreamBufferIsFull
 1696              		.type	xStreamBufferIsFull, @function
 1697              	xStreamBufferIsFull:
 1698              	.LFB14:
 1699              		.loc 1 994 0
 1700              		.cfi_startproc
 1701              	.LVL240:
 1702              	.LBB104:
 1703              	.LBB105:
 1704              		.loc 1 477 0
 1705 0000 C263     		se_lwz %r6,8(%r3)
 1706 0002 C073     		se_lwz %r7,0(%r3)
 1707              	.LBE105:
 1708              	.LBE104:
 1709              		.loc 1 1005 0
 1710 0004 30A3001C 		e_lbz %r5,28(%r3)
GAS LISTING C:\Users\marky\AppData\Local\Temp\cc4VHMFj.s 			page 31


 1711              	.LBB108:
 1712              	.LBB106:
 1713              		.loc 1 478 0
 1714 0008 C143     		se_lwz %r4,4(%r3)
 1715              		.loc 1 477 0
 1716 000a 7CE63A14 		add %r7,%r6,%r7
 1717              	.LBE106:
 1718              	.LBE108:
 1719              		.loc 1 1011 0
 1720 000e 74A3177B 		e_rlwinm %r3,%r5,2,29,29
 1721              	.LVL241:
 1722 0012 18E784FF 		e_addi %r7,%r7,-1
 1723              	.LVL242:
 1724              	.LBB109:
 1725              	.LBB107:
 1726              		.loc 1 479 0
 1727 0016 0647     		se_sub %r7, %r4
 1728              	.LVL243:
 1729              		.loc 1 481 0
 1730 0018 0D76     		se_cmpl %r6,%r7
 1731              		.loc 1 483 0
 1732 001a 0776     		se_subf %r6, %r7
 1733 001c 7CE7305E 		isel %r7,%r7,%r6,1
 1734              	.LVL244:
 1735              	.LBE107:
 1736              	.LBE109:
 1737              		.loc 1 1025 0
 1738 0020 7C671810 		subfc %r3,%r7,%r3
 1739 0024 70600000 		e_li %r3,0
 1740 0028 7C631914 		adde %r3,%r3,%r3
 1741              	.LVL245:
 1742 002c 0004     		se_blr
 1743              		.cfi_endproc
 1744              	.LFE14:
 1745              		.size	xStreamBufferIsFull, .-xStreamBufferIsFull
 1746              		.section	.text.xStreamBufferSendCompletedFromISR,"axv",@progbits
 1747              		.align 1
 1748              		.p2align 4,,15
 1749              		.globl xStreamBufferSendCompletedFromISR
 1750              		.type	xStreamBufferSendCompletedFromISR, @function
 1751              	xStreamBufferSendCompletedFromISR:
 1752              	.LFB15:
 1753              		.loc 1 1029 0
 1754              		.cfi_startproc
 1755              	.LVL246:
 1756 0000 182106F0 		e_stwu %r1,-16(%r1)
 1757              	.LCFI38:
 1758              		.cfi_def_cfa_offset 16
 1759 0004 0080     		se_mflr %r0
 1760 0006 1BC10908 		e_stmw %r30,8(%r1)
 1761 000a D501     		se_stw %r0,20(%r1)
 1762              		.cfi_offset 65, 4
 1763              		.cfi_offset 30, -8
 1764              		.cfi_offset 31, -4
 1765              		.loc 1 1049 0
 1766 000c 480E     		se_li %r30,0
 1767              		.loc 1 1038 0
GAS LISTING C:\Users\marky\AppData\Local\Temp\cc4VHMFj.s 			page 32


 1768 000e C463     		se_lwz %r6,16(%r3)
 1769 0010 2A06     		se_cmpi %r6,0
 1770 0012 7A120018 		e_beq %cr0,.L102
 1771 0016 0147     		se_mr %r7,%r4
 1772 0018 013F     		se_mr %r31,%r3
 1773              		.loc 1 1040 0
 1774 001a 4804     		se_li %r4,0
 1775              	.LVL247:
 1776 001c C433     		se_lwz %r3,16(%r3)
 1777              	.LVL248:
 1778 001e 4805     		se_li %r5,0
 1779 0020 4806     		se_li %r6,0
 1780 0022 78000001 		e_bl xTaskGenericNotifyFromISR
 1781              	.LVL249:
 1782              		.loc 1 1044 0
 1783 0026 D4EF     		se_stw %r30,16(%r31)
 1784              	.LVL250:
 1785              		.loc 1 1045 0
 1786 0028 481E     		se_li %r30,1
 1787              	.LVL251:
 1788              	.L102:
 1789              		.loc 1 1055 0
 1790 002a C501     		se_lwz %r0,20(%r1)
 1791 002c 0090     		se_mtlr %r0
 1792              		.cfi_restore 65
 1793 002e 01E3     		se_mr %r3,%r30
 1794 0030 1BC10808 		e_lmw %r30,8(%r1)
 1795              	.LVL252:
 1796 0034 20F1     		se_addi %r1,16
 1797              	.LCFI39:
 1798              		.cfi_restore 31
 1799              		.cfi_restore 30
 1800              		.cfi_def_cfa_offset 0
 1801 0036 0004     		se_blr
 1802              		.cfi_endproc
 1803              	.LFE15:
 1804              		.size	xStreamBufferSendCompletedFromISR, .-xStreamBufferSendCompletedFromISR
 1805              		.section	.text.xStreamBufferReceiveCompletedFromISR,"axv",@progbits
 1806              		.align 1
 1807              		.p2align 4,,15
 1808              		.globl xStreamBufferReceiveCompletedFromISR
 1809              		.type	xStreamBufferReceiveCompletedFromISR, @function
 1810              	xStreamBufferReceiveCompletedFromISR:
 1811              	.LFB16:
 1812              		.loc 1 1059 0
 1813              		.cfi_startproc
 1814              	.LVL253:
 1815 0000 182106F0 		e_stwu %r1,-16(%r1)
 1816              	.LCFI40:
 1817              		.cfi_def_cfa_offset 16
 1818 0004 0080     		se_mflr %r0
 1819 0006 1BC10908 		e_stmw %r30,8(%r1)
 1820 000a D501     		se_stw %r0,20(%r1)
 1821              		.cfi_offset 65, 4
 1822              		.cfi_offset 30, -8
 1823              		.cfi_offset 31, -4
 1824              		.loc 1 1079 0
GAS LISTING C:\Users\marky\AppData\Local\Temp\cc4VHMFj.s 			page 33


 1825 000c 480E     		se_li %r30,0
 1826              		.loc 1 1068 0
 1827 000e C563     		se_lwz %r6,20(%r3)
 1828 0010 2A06     		se_cmpi %r6,0
 1829 0012 7A120018 		e_beq %cr0,.L105
 1830 0016 0147     		se_mr %r7,%r4
 1831 0018 013F     		se_mr %r31,%r3
 1832              		.loc 1 1070 0
 1833 001a 4804     		se_li %r4,0
 1834              	.LVL254:
 1835 001c C533     		se_lwz %r3,20(%r3)
 1836              	.LVL255:
 1837 001e 4805     		se_li %r5,0
 1838 0020 4806     		se_li %r6,0
 1839 0022 78000001 		e_bl xTaskGenericNotifyFromISR
 1840              	.LVL256:
 1841              		.loc 1 1074 0
 1842 0026 D5EF     		se_stw %r30,20(%r31)
 1843              	.LVL257:
 1844              		.loc 1 1075 0
 1845 0028 481E     		se_li %r30,1
 1846              	.LVL258:
 1847              	.L105:
 1848              		.loc 1 1085 0
 1849 002a C501     		se_lwz %r0,20(%r1)
 1850 002c 0090     		se_mtlr %r0
 1851              		.cfi_restore 65
 1852 002e 01E3     		se_mr %r3,%r30
 1853 0030 1BC10808 		e_lmw %r30,8(%r1)
 1854              	.LVL259:
 1855 0034 20F1     		se_addi %r1,16
 1856              	.LCFI41:
 1857              		.cfi_restore 31
 1858              		.cfi_restore 30
 1859              		.cfi_def_cfa_offset 0
 1860 0036 0004     		se_blr
 1861              		.cfi_endproc
 1862              	.LFE16:
 1863              		.size	xStreamBufferReceiveCompletedFromISR, .-xStreamBufferReceiveCompletedFromISR
 1864              		.section	".text","axv"
 1865              	.Letext0:
 1866              		.file 2 "c:\\spc5studio\\eclipse\\plugins\\com.st.tools.spc5.tools.gnu.gcc.ppcvle.win32_4.9.4.2018
 1867              		.file 3 "c:\\spc5studio\\eclipse\\plugins\\com.st.tools.spc5.tools.gnu.gcc.ppcvle.win32_4.9.4.2018
 1868              		.file 4 "c:\\spc5studio\\eclipse\\plugins\\com.st.tools.spc5.tools.gnu.gcc.ppcvle.win32_4.9.4.2018
 1869              		.file 5 "./components/spc5_freertos_component_rla/lib/portable/portmacro.h"
 1870              		.file 6 "./components/spc5_freertos_component_rla/lib/include/task.h"
 1871              		.file 7 "./components/spc5_freertos_component_rla/lib/include/stream_buffer.h"
 1872              		.file 8 "./components/spc5_freertos_component_rla/lib/include/portable.h"