GAS LISTING C:\Users\marky\AppData\Local\Temp\ccUZFniT.s 			page 1


   1              		.file	"systimer.c"
   2              		.section	".text","axv"
   3              	.Ltext0:
   4              		.cfi_sections	.debug_frame
   5              		.section	.text.sysTimeSetup,"axv",@progbits
   6              		.align 1
   7              		.p2align 4,,15
   8              		.globl sysTimeSetup
   9              		.type	sysTimeSetup, @function
  10              	sysTimeSetup:
  11              	.LFB4:
  12              		.file 1 "./components/spc560bxx_osal_component_rla/lib/src/systimer.c"
  13              		.loc 1 56 0
  14              		.cfi_startproc
  15              	.LVL0:
  16 0000 182106F0 		e_stwu %r1,-16(%r1)
  17              	.LCFI0:
  18              		.cfi_def_cfa_offset 16
  19 0004 0080     		se_mflr %r0
  20 0006 D3F1     		se_stw %r31,12(%r1)
  21 0008 D501     		se_stw %r0,20(%r1)
  22              		.cfi_offset 65, 4
  23              		.cfi_offset 31, -4
  24              		.loc 1 62 0
  25 000a 4846     		se_li %r6,4
  26              		.loc 1 56 0
  27 000c 013F     		se_mr %r31,%r3
  28              		.loc 1 63 0
  29 000e 4924     		se_li %r4,18
  30 0010 4DC3     		se_li %r3,92
  31              	.LVL1:
  32              		.loc 1 62 0
  33 0012 70FFE7F4 		e_lis %r7,0xfff4
  34 0016 70F0C07B 		e_or2i %r7,32891
  35 001a 9067     		se_stb %r6,0(%r7)
  36              		.loc 1 63 0
  37 001c 78000001 		e_bl SPCSetPeripheralClockMode
  38              	.LVL2:
  39              		.loc 1 64 0
  40 0020 4803     		se_li %r3,0
  41 0022 78000001 		e_bl SPCGetPeripheralClock
  42              	.LVL3:
  43              		.loc 1 65 0
  44 0026 70F8E3FF 		e_lis %r7,0xc3ff
  45 002a 4816     		se_li %r6,1
  46              		.loc 1 64 0
  47 002c 7C63FB96 		divwu %r3,%r3,%r31
  48              		.loc 1 65 0
  49 0030 D067     		se_stw %r6,0(%r7)
  50              		.loc 1 64 0
  51 0032 186384FF 		e_addi %r3,%r3,-1
  52              	.LVL4:
  53              		.loc 1 66 0
  54 0036 54670100 		e_stw %r3,256(%r7)
  55              		.loc 1 67 0
  56 003a 54670104 		e_stw %r3,260(%r7)
  57              		.loc 1 68 0
GAS LISTING C:\Users\marky\AppData\Local\Temp\ccUZFniT.s 			page 2


  58 003e 54C7010C 		e_stw %r6,268(%r7)
  59              		.loc 1 69 0
  60 0042 4836     		se_li %r6,3
  61 0044 54C70108 		e_stw %r6,264(%r7)
  62              		.loc 1 70 0
  63 0048 C501     		se_lwz %r0,20(%r1)
  64 004a 0090     		se_mtlr %r0
  65              		.cfi_restore 65
  66 004c C3F1     		se_lwz %r31,12(%r1)
  67              	.LVL5:
  68 004e 20F1     		se_addi %r1,16
  69              	.LCFI1:
  70              		.cfi_restore 31
  71              		.cfi_def_cfa_offset 0
  72 0050 0004     		se_blr
  73              		.cfi_endproc
  74              	.LFE4:
  75              		.size	sysTimeSetup, .-sysTimeSetup
  76              		.section	.text.sysTimeReset,"axv",@progbits
  77              		.align 1
  78              		.p2align 4,,15
  79              		.globl sysTimeReset
  80              		.type	sysTimeReset, @function
  81              	sysTimeReset:
  82              	.LFB5:
  83              		.loc 1 78 0
  84              		.cfi_startproc
  85              		.loc 1 80 0
  86 0000 70F8E3FF 		e_lis %r7,0xc3ff
  87 0004 50C7010C 		e_lwz %r6,268(%r7)
  88 0008 2206     		se_cmpli %r6,1
  89 000a 7A120006 		e_beq %cr0,.L5
  90 000e 0004     		se_blr
  91              	.L5:
  92              		.loc 1 81 0
  93 0010 54C7010C 		e_stw %r6,268(%r7)
  94 0014 0004     		se_blr
  95              		.cfi_endproc
  96              	.LFE5:
  97              		.size	sysTimeReset, .-sysTimeReset
  98              		.section	".text","axv"
  99              	.Letext0:
 100              		.file 2 "c:\\spc5studio\\eclipse\\plugins\\com.st.tools.spc5.tools.gnu.gcc.ppcvle.win32_4.9.4.2018
 101              		.file 3 "c:\\spc5studio\\eclipse\\plugins\\com.st.tools.spc5.tools.gnu.gcc.ppcvle.win32_4.9.4.2018
 102              		.file 4 "./components/spc560bxx_platform_component_rla/lib/include/typedefs.h"
 103              		.file 5 "./components/spc560bxx_platform_component_rla/lib/include/xpc560b.h"
 104              		.file 6 "./components/spc560bxx_clock_component_rla/lib/include/clock.h"